
Optional file libmchp_peripheral.a not found

Optional file libmchp_peripheral_32MX795F512L.a not found
Archive member included because of file (symbol)

c:/program files (x86)/microchip/xc32/v1.40/bin/bin/../../lib/gcc/pic32mx/4.8.3/../../../../pic32mx/lib\libpic32.a(memcpy.o)
                              build/default/debug/_ext/373060831/queue.o (memcpy)
c:/program files (x86)/microchip/xc32/v1.40/bin/bin/../../lib/gcc/pic32mx/4.8.3/../../../../pic32mx/lib\libpic32.a(memset.o)
                              build/default/debug/_ext/373060831/tasks.o (memset)
c:/program files (x86)/microchip/xc32/v1.40/bin/bin/../../lib/gcc/pic32mx/4.8.3/../../../../pic32mx/lib\libpic32.a(default-bootstrap-exception-handler.o)
                              c:/program files (x86)/microchip/xc32/v1.40/bin/bin/../../lib/gcc/pic32mx/4.8.3/../../../../pic32mx/lib/./proc/32MX795F512L/crt0_mips32r2.o (_bootstrap_exception_handler)
c:/program files (x86)/microchip/xc32/v1.40/bin/bin/../../lib/gcc/pic32mx/4.8.3/../../../../pic32mx/lib\libpic32.a(default-on-reset.o)
                              c:/program files (x86)/microchip/xc32/v1.40/bin/bin/../../lib/gcc/pic32mx/4.8.3/../../../../pic32mx/lib/./proc/32MX795F512L/crt0_mips32r2.o (_on_reset)
c:/program files (x86)/microchip/xc32/v1.40/bin/bin/../../lib/gcc/pic32mx/4.8.3/../../../../pic32mx/lib\libpic32.a(default-on-bootstrap.o)
                              c:/program files (x86)/microchip/xc32/v1.40/bin/bin/../../lib/gcc/pic32mx/4.8.3/../../../../pic32mx/lib/./proc/32MX795F512L/crt0_mips32r2.o (_on_bootstrap)
c:/program files (x86)/microchip/xc32/v1.40/bin/bin/../../lib/gcc/pic32mx/4.8.3/../../../../pic32mx/lib\libpic32.a(default-nmi-handler.o)
                              c:/program files (x86)/microchip/xc32/v1.40/bin/bin/../../lib/gcc/pic32mx/4.8.3/../../../../pic32mx/lib/./proc/32MX795F512L/crt0_mips32r2.o (_nmi_handler)
c:/program files (x86)/microchip/xc32/v1.40/bin/bin/../../lib/gcc/pic32mx/4.8.3/../../../../pic32mx/lib\libpic32.a(general-exception.o)
                              c:/program files (x86)/microchip/xc32/v1.40/bin/bin/../../lib/gcc/pic32mx/4.8.3/../../../../pic32mx/lib/./proc/32MX795F512L/crt0_mips32r2.o (_general_exception_context)
c:/program files (x86)/microchip/xc32/v1.40/bin/bin/../../lib/gcc/pic32mx/4.8.3/../../../../pic32mx/lib\libpic32.a(vector0.o)
                              c:/program files (x86)/microchip/xc32/v1.40/bin/bin/../../lib/gcc/pic32mx/4.8.3/../../../../pic32mx/lib/./proc/32MX795F512L\default_isr_vectors.o (__vector_dispatch_0)
c:/program files (x86)/microchip/xc32/v1.40/bin/bin/../../lib/gcc/pic32mx/4.8.3/../../../../pic32mx/lib\libpic32.a(vector2.o)
                              c:/program files (x86)/microchip/xc32/v1.40/bin/bin/../../lib/gcc/pic32mx/4.8.3/../../../../pic32mx/lib/./proc/32MX795F512L\default_isr_vectors.o (__vector_dispatch_2)
c:/program files (x86)/microchip/xc32/v1.40/bin/bin/../../lib/gcc/pic32mx/4.8.3/../../../../pic32mx/lib\libpic32.a(vector3.o)
                              c:/program files (x86)/microchip/xc32/v1.40/bin/bin/../../lib/gcc/pic32mx/4.8.3/../../../../pic32mx/lib/./proc/32MX795F512L\default_isr_vectors.o (__vector_dispatch_3)
c:/program files (x86)/microchip/xc32/v1.40/bin/bin/../../lib/gcc/pic32mx/4.8.3/../../../../pic32mx/lib\libpic32.a(vector5.o)
                              c:/program files (x86)/microchip/xc32/v1.40/bin/bin/../../lib/gcc/pic32mx/4.8.3/../../../../pic32mx/lib/./proc/32MX795F512L\default_isr_vectors.o (__vector_dispatch_5)
c:/program files (x86)/microchip/xc32/v1.40/bin/bin/../../lib/gcc/pic32mx/4.8.3/../../../../pic32mx/lib\libpic32.a(vector6.o)
                              c:/program files (x86)/microchip/xc32/v1.40/bin/bin/../../lib/gcc/pic32mx/4.8.3/../../../../pic32mx/lib/./proc/32MX795F512L\default_isr_vectors.o (__vector_dispatch_6)
c:/program files (x86)/microchip/xc32/v1.40/bin/bin/../../lib/gcc/pic32mx/4.8.3/../../../../pic32mx/lib\libpic32.a(vector7.o)
                              c:/program files (x86)/microchip/xc32/v1.40/bin/bin/../../lib/gcc/pic32mx/4.8.3/../../../../pic32mx/lib/./proc/32MX795F512L\default_isr_vectors.o (__vector_dispatch_7)
c:/program files (x86)/microchip/xc32/v1.40/bin/bin/../../lib/gcc/pic32mx/4.8.3/../../../../pic32mx/lib\libpic32.a(vector8.o)
                              c:/program files (x86)/microchip/xc32/v1.40/bin/bin/../../lib/gcc/pic32mx/4.8.3/../../../../pic32mx/lib/./proc/32MX795F512L\default_isr_vectors.o (__vector_dispatch_8)
c:/program files (x86)/microchip/xc32/v1.40/bin/bin/../../lib/gcc/pic32mx/4.8.3/../../../../pic32mx/lib\libpic32.a(vector9.o)
                              c:/program files (x86)/microchip/xc32/v1.40/bin/bin/../../lib/gcc/pic32mx/4.8.3/../../../../pic32mx/lib/./proc/32MX795F512L\default_isr_vectors.o (__vector_dispatch_9)
c:/program files (x86)/microchip/xc32/v1.40/bin/bin/../../lib/gcc/pic32mx/4.8.3/../../../../pic32mx/lib\libpic32.a(vector10.o)
                              c:/program files (x86)/microchip/xc32/v1.40/bin/bin/../../lib/gcc/pic32mx/4.8.3/../../../../pic32mx/lib/./proc/32MX795F512L\default_isr_vectors.o (__vector_dispatch_10)
c:/program files (x86)/microchip/xc32/v1.40/bin/bin/../../lib/gcc/pic32mx/4.8.3/../../../../pic32mx/lib\libpic32.a(vector11.o)
                              c:/program files (x86)/microchip/xc32/v1.40/bin/bin/../../lib/gcc/pic32mx/4.8.3/../../../../pic32mx/lib/./proc/32MX795F512L\default_isr_vectors.o (__vector_dispatch_11)
c:/program files (x86)/microchip/xc32/v1.40/bin/bin/../../lib/gcc/pic32mx/4.8.3/../../../../pic32mx/lib\libpic32.a(vector12.o)
                              c:/program files (x86)/microchip/xc32/v1.40/bin/bin/../../lib/gcc/pic32mx/4.8.3/../../../../pic32mx/lib/./proc/32MX795F512L\default_isr_vectors.o (__vector_dispatch_12)
c:/program files (x86)/microchip/xc32/v1.40/bin/bin/../../lib/gcc/pic32mx/4.8.3/../../../../pic32mx/lib\libpic32.a(vector13.o)
                              c:/program files (x86)/microchip/xc32/v1.40/bin/bin/../../lib/gcc/pic32mx/4.8.3/../../../../pic32mx/lib/./proc/32MX795F512L\default_isr_vectors.o (__vector_dispatch_13)
c:/program files (x86)/microchip/xc32/v1.40/bin/bin/../../lib/gcc/pic32mx/4.8.3/../../../../pic32mx/lib\libpic32.a(vector14.o)
                              c:/program files (x86)/microchip/xc32/v1.40/bin/bin/../../lib/gcc/pic32mx/4.8.3/../../../../pic32mx/lib/./proc/32MX795F512L\default_isr_vectors.o (__vector_dispatch_14)
c:/program files (x86)/microchip/xc32/v1.40/bin/bin/../../lib/gcc/pic32mx/4.8.3/../../../../pic32mx/lib\libpic32.a(vector15.o)
                              c:/program files (x86)/microchip/xc32/v1.40/bin/bin/../../lib/gcc/pic32mx/4.8.3/../../../../pic32mx/lib/./proc/32MX795F512L\default_isr_vectors.o (__vector_dispatch_15)
c:/program files (x86)/microchip/xc32/v1.40/bin/bin/../../lib/gcc/pic32mx/4.8.3/../../../../pic32mx/lib\libpic32.a(vector16.o)
                              c:/program files (x86)/microchip/xc32/v1.40/bin/bin/../../lib/gcc/pic32mx/4.8.3/../../../../pic32mx/lib/./proc/32MX795F512L\default_isr_vectors.o (__vector_dispatch_16)
c:/program files (x86)/microchip/xc32/v1.40/bin/bin/../../lib/gcc/pic32mx/4.8.3/../../../../pic32mx/lib\libpic32.a(vector17.o)
                              c:/program files (x86)/microchip/xc32/v1.40/bin/bin/../../lib/gcc/pic32mx/4.8.3/../../../../pic32mx/lib/./proc/32MX795F512L\default_isr_vectors.o (__vector_dispatch_17)
c:/program files (x86)/microchip/xc32/v1.40/bin/bin/../../lib/gcc/pic32mx/4.8.3/../../../../pic32mx/lib\libpic32.a(vector18.o)
                              c:/program files (x86)/microchip/xc32/v1.40/bin/bin/../../lib/gcc/pic32mx/4.8.3/../../../../pic32mx/lib/./proc/32MX795F512L\default_isr_vectors.o (__vector_dispatch_18)
c:/program files (x86)/microchip/xc32/v1.40/bin/bin/../../lib/gcc/pic32mx/4.8.3/../../../../pic32mx/lib\libpic32.a(vector19.o)
                              c:/program files (x86)/microchip/xc32/v1.40/bin/bin/../../lib/gcc/pic32mx/4.8.3/../../../../pic32mx/lib/./proc/32MX795F512L\default_isr_vectors.o (__vector_dispatch_19)
c:/program files (x86)/microchip/xc32/v1.40/bin/bin/../../lib/gcc/pic32mx/4.8.3/../../../../pic32mx/lib\libpic32.a(vector20.o)
                              c:/program files (x86)/microchip/xc32/v1.40/bin/bin/../../lib/gcc/pic32mx/4.8.3/../../../../pic32mx/lib/./proc/32MX795F512L\default_isr_vectors.o (__vector_dispatch_20)
c:/program files (x86)/microchip/xc32/v1.40/bin/bin/../../lib/gcc/pic32mx/4.8.3/../../../../pic32mx/lib\libpic32.a(vector21.o)
                              c:/program files (x86)/microchip/xc32/v1.40/bin/bin/../../lib/gcc/pic32mx/4.8.3/../../../../pic32mx/lib/./proc/32MX795F512L\default_isr_vectors.o (__vector_dispatch_21)
c:/program files (x86)/microchip/xc32/v1.40/bin/bin/../../lib/gcc/pic32mx/4.8.3/../../../../pic32mx/lib\libpic32.a(vector22.o)
                              c:/program files (x86)/microchip/xc32/v1.40/bin/bin/../../lib/gcc/pic32mx/4.8.3/../../../../pic32mx/lib/./proc/32MX795F512L\default_isr_vectors.o (__vector_dispatch_22)
c:/program files (x86)/microchip/xc32/v1.40/bin/bin/../../lib/gcc/pic32mx/4.8.3/../../../../pic32mx/lib\libpic32.a(vector23.o)
                              c:/program files (x86)/microchip/xc32/v1.40/bin/bin/../../lib/gcc/pic32mx/4.8.3/../../../../pic32mx/lib/./proc/32MX795F512L\default_isr_vectors.o (__vector_dispatch_23)
c:/program files (x86)/microchip/xc32/v1.40/bin/bin/../../lib/gcc/pic32mx/4.8.3/../../../../pic32mx/lib\libpic32.a(vector25.o)
                              c:/program files (x86)/microchip/xc32/v1.40/bin/bin/../../lib/gcc/pic32mx/4.8.3/../../../../pic32mx/lib/./proc/32MX795F512L\default_isr_vectors.o (__vector_dispatch_25)
c:/program files (x86)/microchip/xc32/v1.40/bin/bin/../../lib/gcc/pic32mx/4.8.3/../../../../pic32mx/lib\libpic32.a(vector26.o)
                              c:/program files (x86)/microchip/xc32/v1.40/bin/bin/../../lib/gcc/pic32mx/4.8.3/../../../../pic32mx/lib/./proc/32MX795F512L\default_isr_vectors.o (__vector_dispatch_26)
c:/program files (x86)/microchip/xc32/v1.40/bin/bin/../../lib/gcc/pic32mx/4.8.3/../../../../pic32mx/lib\libpic32.a(vector28.o)
                              c:/program files (x86)/microchip/xc32/v1.40/bin/bin/../../lib/gcc/pic32mx/4.8.3/../../../../pic32mx/lib/./proc/32MX795F512L\default_isr_vectors.o (__vector_dispatch_28)
c:/program files (x86)/microchip/xc32/v1.40/bin/bin/../../lib/gcc/pic32mx/4.8.3/../../../../pic32mx/lib\libpic32.a(vector29.o)
                              c:/program files (x86)/microchip/xc32/v1.40/bin/bin/../../lib/gcc/pic32mx/4.8.3/../../../../pic32mx/lib/./proc/32MX795F512L\default_isr_vectors.o (__vector_dispatch_29)
c:/program files (x86)/microchip/xc32/v1.40/bin/bin/../../lib/gcc/pic32mx/4.8.3/../../../../pic32mx/lib\libpic32.a(vector30.o)
                              c:/program files (x86)/microchip/xc32/v1.40/bin/bin/../../lib/gcc/pic32mx/4.8.3/../../../../pic32mx/lib/./proc/32MX795F512L\default_isr_vectors.o (__vector_dispatch_30)
c:/program files (x86)/microchip/xc32/v1.40/bin/bin/../../lib/gcc/pic32mx/4.8.3/../../../../pic32mx/lib\libpic32.a(vector31.o)
                              c:/program files (x86)/microchip/xc32/v1.40/bin/bin/../../lib/gcc/pic32mx/4.8.3/../../../../pic32mx/lib/./proc/32MX795F512L\default_isr_vectors.o (__vector_dispatch_31)
c:/program files (x86)/microchip/xc32/v1.40/bin/bin/../../lib/gcc/pic32mx/4.8.3/../../../../pic32mx/lib\libpic32.a(vector32.o)
                              c:/program files (x86)/microchip/xc32/v1.40/bin/bin/../../lib/gcc/pic32mx/4.8.3/../../../../pic32mx/lib/./proc/32MX795F512L\default_isr_vectors.o (__vector_dispatch_32)
c:/program files (x86)/microchip/xc32/v1.40/bin/bin/../../lib/gcc/pic32mx/4.8.3/../../../../pic32mx/lib\libpic32.a(vector33.o)
                              c:/program files (x86)/microchip/xc32/v1.40/bin/bin/../../lib/gcc/pic32mx/4.8.3/../../../../pic32mx/lib/./proc/32MX795F512L\default_isr_vectors.o (__vector_dispatch_33)
c:/program files (x86)/microchip/xc32/v1.40/bin/bin/../../lib/gcc/pic32mx/4.8.3/../../../../pic32mx/lib\libpic32.a(vector34.o)
                              c:/program files (x86)/microchip/xc32/v1.40/bin/bin/../../lib/gcc/pic32mx/4.8.3/../../../../pic32mx/lib/./proc/32MX795F512L\default_isr_vectors.o (__vector_dispatch_34)
c:/program files (x86)/microchip/xc32/v1.40/bin/bin/../../lib/gcc/pic32mx/4.8.3/../../../../pic32mx/lib\libpic32.a(vector35.o)
                              c:/program files (x86)/microchip/xc32/v1.40/bin/bin/../../lib/gcc/pic32mx/4.8.3/../../../../pic32mx/lib/./proc/32MX795F512L\default_isr_vectors.o (__vector_dispatch_35)
c:/program files (x86)/microchip/xc32/v1.40/bin/bin/../../lib/gcc/pic32mx/4.8.3/../../../../pic32mx/lib\libpic32.a(vector36.o)
                              c:/program files (x86)/microchip/xc32/v1.40/bin/bin/../../lib/gcc/pic32mx/4.8.3/../../../../pic32mx/lib/./proc/32MX795F512L\default_isr_vectors.o (__vector_dispatch_36)
c:/program files (x86)/microchip/xc32/v1.40/bin/bin/../../lib/gcc/pic32mx/4.8.3/../../../../pic32mx/lib\libpic32.a(vector37.o)
                              c:/program files (x86)/microchip/xc32/v1.40/bin/bin/../../lib/gcc/pic32mx/4.8.3/../../../../pic32mx/lib/./proc/32MX795F512L\default_isr_vectors.o (__vector_dispatch_37)
c:/program files (x86)/microchip/xc32/v1.40/bin/bin/../../lib/gcc/pic32mx/4.8.3/../../../../pic32mx/lib\libpic32.a(vector38.o)
                              c:/program files (x86)/microchip/xc32/v1.40/bin/bin/../../lib/gcc/pic32mx/4.8.3/../../../../pic32mx/lib/./proc/32MX795F512L\default_isr_vectors.o (__vector_dispatch_38)
c:/program files (x86)/microchip/xc32/v1.40/bin/bin/../../lib/gcc/pic32mx/4.8.3/../../../../pic32mx/lib\libpic32.a(vector39.o)
                              c:/program files (x86)/microchip/xc32/v1.40/bin/bin/../../lib/gcc/pic32mx/4.8.3/../../../../pic32mx/lib/./proc/32MX795F512L\default_isr_vectors.o (__vector_dispatch_39)
c:/program files (x86)/microchip/xc32/v1.40/bin/bin/../../lib/gcc/pic32mx/4.8.3/../../../../pic32mx/lib\libpic32.a(vector40.o)
                              c:/program files (x86)/microchip/xc32/v1.40/bin/bin/../../lib/gcc/pic32mx/4.8.3/../../../../pic32mx/lib/./proc/32MX795F512L\default_isr_vectors.o (__vector_dispatch_40)
c:/program files (x86)/microchip/xc32/v1.40/bin/bin/../../lib/gcc/pic32mx/4.8.3/../../../../pic32mx/lib\libpic32.a(vector41.o)
                              c:/program files (x86)/microchip/xc32/v1.40/bin/bin/../../lib/gcc/pic32mx/4.8.3/../../../../pic32mx/lib/./proc/32MX795F512L\default_isr_vectors.o (__vector_dispatch_41)
c:/program files (x86)/microchip/xc32/v1.40/bin/bin/../../lib/gcc/pic32mx/4.8.3/../../../../pic32mx/lib\libpic32.a(vector42.o)
                              c:/program files (x86)/microchip/xc32/v1.40/bin/bin/../../lib/gcc/pic32mx/4.8.3/../../../../pic32mx/lib/./proc/32MX795F512L\default_isr_vectors.o (__vector_dispatch_42)
c:/program files (x86)/microchip/xc32/v1.40/bin/bin/../../lib/gcc/pic32mx/4.8.3/../../../../pic32mx/lib\libpic32.a(vector43.o)
                              c:/program files (x86)/microchip/xc32/v1.40/bin/bin/../../lib/gcc/pic32mx/4.8.3/../../../../pic32mx/lib/./proc/32MX795F512L\default_isr_vectors.o (__vector_dispatch_43)
c:/program files (x86)/microchip/xc32/v1.40/bin/bin/../../lib/gcc/pic32mx/4.8.3/../../../../pic32mx/lib\libpic32.a(vector44.o)
                              c:/program files (x86)/microchip/xc32/v1.40/bin/bin/../../lib/gcc/pic32mx/4.8.3/../../../../pic32mx/lib/./proc/32MX795F512L\default_isr_vectors.o (__vector_dispatch_44)
c:/program files (x86)/microchip/xc32/v1.40/bin/bin/../../lib/gcc/pic32mx/4.8.3/../../../../pic32mx/lib\libpic32.a(vector45.o)
                              c:/program files (x86)/microchip/xc32/v1.40/bin/bin/../../lib/gcc/pic32mx/4.8.3/../../../../pic32mx/lib/./proc/32MX795F512L\default_isr_vectors.o (__vector_dispatch_45)
c:/program files (x86)/microchip/xc32/v1.40/bin/bin/../../lib/gcc/pic32mx/4.8.3/../../../../pic32mx/lib\libpic32.a(vector46.o)
                              c:/program files (x86)/microchip/xc32/v1.40/bin/bin/../../lib/gcc/pic32mx/4.8.3/../../../../pic32mx/lib/./proc/32MX795F512L\default_isr_vectors.o (__vector_dispatch_46)
c:/program files (x86)/microchip/xc32/v1.40/bin/bin/../../lib/gcc/pic32mx/4.8.3/../../../../pic32mx/lib\libpic32.a(vector47.o)
                              c:/program files (x86)/microchip/xc32/v1.40/bin/bin/../../lib/gcc/pic32mx/4.8.3/../../../../pic32mx/lib/./proc/32MX795F512L\default_isr_vectors.o (__vector_dispatch_47)
c:/program files (x86)/microchip/xc32/v1.40/bin/bin/../../lib/gcc/pic32mx/4.8.3/../../../../pic32mx/lib\libpic32.a(vector48.o)
                              c:/program files (x86)/microchip/xc32/v1.40/bin/bin/../../lib/gcc/pic32mx/4.8.3/../../../../pic32mx/lib/./proc/32MX795F512L\default_isr_vectors.o (__vector_dispatch_48)
c:/program files (x86)/microchip/xc32/v1.40/bin/bin/../../lib/gcc/pic32mx/4.8.3/../../../../pic32mx/lib\libpic32.a(vector49.o)
                              c:/program files (x86)/microchip/xc32/v1.40/bin/bin/../../lib/gcc/pic32mx/4.8.3/../../../../pic32mx/lib/./proc/32MX795F512L\default_isr_vectors.o (__vector_dispatch_49)
c:/program files (x86)/microchip/xc32/v1.40/bin/bin/../../lib/gcc/pic32mx/4.8.3/../../../../pic32mx/lib\libpic32.a(vector50.o)
                              c:/program files (x86)/microchip/xc32/v1.40/bin/bin/../../lib/gcc/pic32mx/4.8.3/../../../../pic32mx/lib/./proc/32MX795F512L\default_isr_vectors.o (__vector_dispatch_50)
c:/program files (x86)/microchip/xc32/v1.40/bin/bin/../../lib/gcc/pic32mx/4.8.3/../../../../pic32mx/lib\libpic32.a(vector51.o)
                              c:/program files (x86)/microchip/xc32/v1.40/bin/bin/../../lib/gcc/pic32mx/4.8.3/../../../../pic32mx/lib/./proc/32MX795F512L\default_isr_vectors.o (__vector_dispatch_51)
c:/program files (x86)/microchip/xc32/v1.40/bin/bin/../../lib/gcc/pic32mx/4.8.3/../../../../pic32mx/lib\libpic32.a(memcmp.o)
                              build/default/debug/_ext/373060831/tasks.o (memcmp)
c:/program files (x86)/microchip/xc32/v1.40/bin/bin/../../lib/gcc/pic32mx/4.8.3/../../../../pic32mx/lib\libpic32.a(defaultinterrupt.o)
                              c:/program files (x86)/microchip/xc32/v1.40/bin/bin/../../lib/gcc/pic32mx/4.8.3/../../../../pic32mx/lib\libpic32.a(vector0.o) (_DefaultInterrupt)
c:/program files (x86)/microchip/xc32/v1.40/bin/bin/../../lib/gcc/pic32mx/4.8.3/../../../../pic32mx/lib\libm.a(fp32div.o)
                              build/default/debug/_ext/1360937237/process.o (fpdiv)
c:/program files (x86)/microchip/xc32/v1.40/bin/bin/../../lib/gcc/pic32mx/4.8.3/../../../../pic32mx/lib\libm.a(fp32mul.o)
                              build/default/debug/_ext/1360937237/process.o (fpmul)
c:/program files (x86)/microchip/xc32/v1.40/bin/bin/../../lib/gcc/pic32mx/4.8.3/../../../../pic32mx/lib\libm.a(fp32subadd.o)
                              build/default/debug/_ext/1360937237/process.o (fpsub)
c:/program files (x86)/microchip/xc32/v1.40/bin/bin/../../lib/gcc/pic32mx/4.8.3/../../../../pic32mx/lib\libm.a(fpatan.o)
                              build/default/debug/_ext/1360937237/process.o (atanf)
c:/program files (x86)/microchip/xc32/v1.40/bin/bin/../../lib/gcc/pic32mx/4.8.3/../../../../pic32mx/lib\libm.a(fpcmp.o)
                              build/default/debug/_ext/1360937237/process.o (fpcmp)
c:/program files (x86)/microchip/xc32/v1.40/bin/bin/../../lib/gcc/pic32mx/4.8.3/../../../../pic32mx/lib\libm.a(fpexatan.o)
                              c:/program files (x86)/microchip/xc32/v1.40/bin/bin/../../lib/gcc/pic32mx/4.8.3/../../../../pic32mx/lib\libm.a(fpatan.o) (fpexatan)
c:/program files (x86)/microchip/xc32/v1.40/bin/bin/../../lib/gcc/pic32mx/4.8.3/../../../../pic32mx/lib\libm.a(fpexsqrt32.o)
                              c:/program files (x86)/microchip/xc32/v1.40/bin/bin/../../lib/gcc/pic32mx/4.8.3/../../../../pic32mx/lib\libm.a(fpatan.o) (fpexsqrt)
c:/program files (x86)/microchip/xc32/v1.40/bin/bin/../../lib/gcc/pic32mx/4.8.3/../../../../pic32mx/lib\libm.a(fptoli.o)
                              build/default/debug/_ext/1360937237/process.o (fptosi)
c:/program files (x86)/microchip/xc32/v1.40/bin/bin/../../lib/gcc/pic32mx/4.8.3/../../../../pic32mx/lib\libm.a(sitofp.o)
                              build/default/debug/_ext/1360937237/process.o (sitofp)
c:/program files (x86)/microchip/xc32/v1.40/bin/bin/../../lib/gcc/pic32mx/4.8.3/../../../../pic32mx/lib\libm.a(w_sqrtf.o)
                              build/default/debug/_ext/1360937237/process.o (sqrtf)
c:/program files (x86)/microchip/xc32/v1.40/bin/bin/../../lib/gcc/pic32mx/4.8.3/../../../../pic32mx/lib\libm.a(fpsqrt32.o)
                              c:/program files (x86)/microchip/xc32/v1.40/bin/bin/../../lib/gcc/pic32mx/4.8.3/../../../../pic32mx/lib\libm.a(w_sqrtf.o) (__mchp_sqrtf)
c:/program files (x86)/microchip/xc32/v1.40/bin/bin/../../lib/gcc/pic32mx/4.8.3/../../../../pic32mx/lib\libm.a(s_lib_ver.o)
                              c:/program files (x86)/microchip/xc32/v1.40/bin/bin/../../lib/gcc/pic32mx/4.8.3/../../../../pic32mx/lib\libm.a(w_sqrtf.o) (math_errhandling)
c:/program files (x86)/microchip/xc32/v1.40/bin/bin/../../lib/gcc/pic32mx/4.8.3/../../../../pic32mx/lib\libc.a(errno.o)
                              c:/program files (x86)/microchip/xc32/v1.40/bin/bin/../../lib/gcc/pic32mx/4.8.3/../../../../pic32mx/lib\libm.a(w_sqrtf.o) (errno)
c:/program files (x86)/microchip/xc32/v1.40/bin/bin/../../lib/gcc/pic32mx/4.8.3/../../../../pic32mx/lib\libc.a(strncpy.o)
                              build/default/debug/_ext/1360937237/process.o (strncpy)

Allocating common symbols
Common symbol       size              file

pxDelayedTaskList   0x4               build/default/debug/_ext/373060831/tasks.o
sysObj              0x4               build/default/debug/_ext/1688732426/system_init.o
pxReadyTasksLists   0x64              build/default/debug/_ext/373060831/tasks.o
pxOverflowDelayedTaskList
                    0x4               build/default/debug/_ext/373060831/tasks.o
xPendingReadyList   0x14              build/default/debug/_ext/373060831/tasks.o
xTasksWaitingTermination
                    0x14              build/default/debug/_ext/373060831/tasks.o
sendData            0x20              build/default/debug/_ext/1360937237/send.o
global_data         0x4               build/default/debug/_ext/1360937237/sender.o
sysDevconObj        0x8               build/default/debug/_ext/482662494/sys_devcon.o
xSuspendedTaskList  0x14              build/default/debug/_ext/373060831/tasks.o
messageBuffer       0x1c              build/default/debug/_ext/1360937237/receive.o
processData         0x304             build/default/debug/_ext/1360937237/process.o
receiveData         0x24              build/default/debug/_ext/1360937237/receive.o
xDelayedTaskList2   0x14              build/default/debug/_ext/373060831/tasks.o
xDelayedTaskList1   0x14              build/default/debug/_ext/373060831/tasks.o

Microchip PIC32 Memory-Usage Report

kseg0 Program-Memory Usage
section                    address  length [bytes]      (dec)  Description
-------                 ----------  -------------------------  -----------
.text.PROCESS_Tasks     0x9d000000          0xec4        3780   
.text.distanceToObstacl 0x9d000ec4          0x59c        1436   
.text                   0x9d001460          0x454        1108  App's exec code 
.text.libm              0x9d0018b4          0x350         848   
.text.fpsubadd          0x9d001c04          0x278         632   
.text.processFindRoverD 0x9d001e7c          0x264         612   
.text.prvTimerTask      0x9d0020e0          0x264         612   
.text.xQueueGenericRece 0x9d002344          0x24c         588   
.dinit                  0x9d002590          0x240         576   
.text.fp32div           0x9d0027d0          0x230         560   
.text.xQueueGenericSend 0x9d002a00          0x208         520   
.text.RECEIVE_Initializ 0x9d002c08          0x1cc         460   
.text.xTaskGenericCreat 0x9d002dd4          0x1c0         448   
.text.fp32mul           0x9d002f94          0x1bc         444   
.DrvAdc_vector_text     0x9d003150          0x1b4         436   
.DrvUsartInstance0_vect 0x9d003304          0x1b4         436   
.text.processMoveRoverT 0x9d0034b8          0x1ac         428   
.text.libm              0x9d003664          0x1ac         428   
.text.xTaskIncrementTic 0x9d003810          0x19c         412   
.text.atan2_custom      0x9d0039ac          0x190         400   
.text                   0x9d003b3c          0x168         360  App's exec code 
.text.processMapDataMsg 0x9d003ca4          0x164         356   
.text.xTaskResumeAll    0x9d003e08          0x154         340   
.text.processMoveRoverF 0x9d003f5c          0x12c         300   
.text.vTaskPriorityInhe 0x9d004088          0x12c         300   
.text.DIVERT_MoveRoverF 0x9d0041b4          0x120         288   
.text.SEND_Initialize   0x9d0042d4          0x120         288   
.text.DRV_ADC_Initializ 0x9d0043f4          0x11c         284   
.text.vTaskSwitchContex 0x9d004510          0x11c         284   
.text.DRV_USART0_Initia 0x9d00462c          0x110         272   
.text.RECEIVE_Tasks     0x9d00473c          0x10c         268   
.text.prvSampleTimeNow  0x9d004848          0x104         260   
.text.prvUnlockQueue    0x9d00494c          0x104         260   
.text.prvCopyDataToQueu 0x9d004a50           0xfc         252   
.text.libm              0x9d004b4c           0xfc         252   
.text.xTaskPriorityDisi 0x9d004c48           0xf8         248   
.text.xQueueGenericSend 0x9d004d40           0xe8         232   
.rodata                 0x9d004e28           0xdc         220  Read-only const 
.text.SYS_DEVCON_Perfor 0x9d004f04           0xdc         220   
.text.general_exception 0x9d004fe0           0xdc         220   
.text.SYS_Tasks         0x9d0050bc           0xd8         216   
.text.xQueueReceiveFrom 0x9d005194           0xd4         212   
.text.PROCESS_Initializ 0x9d005268           0xc4         196   
.text.xQueueGenericRese 0x9d00532c           0xc4         196   
.text.pvPortMalloc      0x9d0053f0           0xc0         192   
.text.xTaskRemoveFromEv 0x9d0054b0           0xbc         188   
.text.prvInitialiseTCBV 0x9d00556c           0xb4         180   
.text.sendDataToTransmi 0x9d005620           0xb0         176   
.text                   0x9d0056d0           0xa8         168  App's exec code 
.text.distanceBetweenPo 0x9d005778           0xa4         164   
.text.xTaskCheckForTime 0x9d00581c           0xa0         160   
.text.fpatan            0x9d0058bc           0xa0         160   
.text.fpcmp             0x9d00595c           0x9c         156   
.text.xTimerCreate      0x9d0059f8           0x98         152   
.text                   0x9d005a90           0x98         152  App's exec code 
.text.vTaskPlaceOnEvent 0x9d005b28           0x94         148   
.text.xTimerGenericComm 0x9d005bbc           0x94         148   
.text.xQueueGenericCrea 0x9d005c50           0x94         148   
.text.receiveDataFromIS 0x9d005ce4           0x90         144   
.text.vTaskStartSchedul 0x9d005d74           0x90         144   
.text.prvInitialiseTask 0x9d005e04           0x90         144   
.text.prvCheckTasksWait 0x9d005e94           0x90         144   
.text.SYS_PORTS_Initial 0x9d005f24           0x88         136   
.text.putMsgOnProcessQu 0x9d005fac           0x88         136   
.text.processUpdateMap  0x9d006034           0x88         136   
.text.putMsgOnSendQueue 0x9d0060bc           0x88         136   
.text.prvAllocateTCBAnd 0x9d006144           0x84         132   
.text.fptoli            0x9d0061c8           0x80         128   
.text.SYS_Initialize    0x9d006248           0x7c         124   
.text.IntHandlerDrvUsar 0x9d0062c4           0x7c         124   
.text.prvInsertTimerInA 0x9d006340           0x74         116   
.text.prvCheckForValidL 0x9d0063b4           0x74         116   
.text.vQueueWaitForMess 0x9d006428           0x74         116   
.text.strncpy           0x9d00649c           0x74         116   
.text.prvAddCurrentTask 0x9d006510           0x70         112   
.text.vApplicationSetup 0x9d006580           0x6c         108   
.text.vTaskPlaceOnEvent 0x9d0065ec           0x6c         108   
.text.vTaskExitCritical 0x9d006658           0x68         104   
.text.sqrtf             0x9d0066c0           0x68         104   
.text.processTransferMa 0x9d006728           0x60          96   
.text.processSendSensor 0x9d006788           0x60          96   
.text.xTimerCreateTimer 0x9d0067e8           0x60          96   
.text.sitofp            0x9d006848           0x60          96   
.text.xPortStartSchedul 0x9d0068a8           0x5c          92   
.text.vListInsert       0x9d006904           0x5c          92   
.text.SYS_CLK_Initializ 0x9d006960           0x58          88   
.text.receiveFromProces 0x9d0069b8           0x58          88   
.text.SYS_DEVCON_System 0x9d006a10           0x58          88   
.text.dbgOutputVal      0x9d006a68           0x58          88   
.text.main_entry        0x9d006ac0           0x54          84   
.text.processTokenMsg   0x9d006b14           0x54          84   
.text.processSendTokenF 0x9d006b68           0x54          84   
.text.SEND_Tasks        0x9d006bbc           0x54          84   
.text.pxPortInitialiseS 0x9d006c10           0x54          84   
.text.vPortIncrementTic 0x9d006c64           0x54          84   
.text.stopAll           0x9d006cb8           0x54          84   
.text.receiveFromSendQ  0x9d006d0c           0x50          80   
.text.vTaskEnterCritica 0x9d006d5c           0x50          80   
.text.prvCopyDataFromQu 0x9d006dac           0x50          80   
.text.SYS_DEVCON_System 0x9d006dfc           0x48          72   
.text._bootstrap_except 0x9d006e44           0x48          72   
.vector_default         0x9d006e8c           0x48          72   
.text._general_exceptio 0x9d006ed4           0x44          68   
.text.receiveSendValFro 0x9d006f18           0x44          68   
.text.uxListRemove      0x9d006f5c           0x44          68   
.text                   0x9d006fa0           0x44          68  App's exec code 
.text.prvIdleTask       0x9d006fe4           0x40          64   
.text.uxPortSetInterrup 0x9d007024           0x3c          60   
.rodata                 0x9d007060           0x38          56  Read-only const 
.text.prvResetNextTaskU 0x9d007098           0x38          56   
.text.uxQueueSpacesAvai 0x9d0070d0           0x38          56   
.text.receiveMotorCallb 0x9d007108           0x34          52   
.text.DRV_USART0_ReadBy 0x9d00713c           0x30          48   
.text.removeProcessQueu 0x9d00716c           0x30          48   
.text.removeSendQueueDa 0x9d00719c           0x30          48   
.text.vListInsertEnd    0x9d0071cc           0x30          48   
.text.prvDeleteTCB      0x9d0071fc           0x30          48   
.text.vApplicationStack 0x9d00722c           0x2c          44   
.text.vApplicationMallo 0x9d007258           0x2c          44   
.text.vTimerCallback    0x9d007284           0x2c          44   
.text.prvTaskExitError  0x9d0072b0           0x2c          44   
.text.pvTaskIncrementMu 0x9d0072dc           0x28          40   
.rodata                 0x9d007304           0x24          36  Read-only const 
.text.main              0x9d007328           0x20          32   
.text.reportMsgDataToSe 0x9d007348           0x20          32   
.text.vListInitialise   0x9d007368           0x20          32   
.text.xTaskGetScheduler 0x9d007388           0x20          32   
.text.receiveTimerCallb 0x9d0073a8           0x1c          28   
.rodata                 0x9d0073c4           0x1c          28  Read-only const 
.text.sendLRMotorInstru 0x9d0073e0           0x1c          28   
.text.SYS_DEVCON_JTAGDi 0x9d0073fc           0x1c          28   
.text.vPortClearInterru 0x9d007418           0x1c          28   
.rodata                 0x9d007434           0x1c          28  Read-only const 
.text._SYS_Tasks        0x9d007450           0x18          24   
.text._RECEIVE_Tasks    0x9d007468           0x18          24   
.text._SEND_Tasks       0x9d007480           0x18          24   
.text._PROCESS_Tasks    0x9d007498           0x18          24   
.text.IntHandlerDrvAdc  0x9d0074b0           0x18          24   
.text.SYS_INT_Initializ 0x9d0074c8           0x18          24   
.text                   0x9d0074e0           0x18          24  App's exec code 
.text.DRV_USART0_Receiv 0x9d0074f8           0x14          20   
.text.SYS_DEVCON_Initia 0x9d00750c           0x14          20   
.text.vTaskSuspendAll   0x9d007520           0x14          20   
.text.vTaskSetTimeOutSt 0x9d007534           0x14          20   
.rodata                 0x9d007548           0x10          16  Read-only const 
.text.vTaskMissedYield  0x9d007558           0x10          16   
.text.__exception_handl 0x9d007568            0xc          12   
.text.SYS_CLK_SystemFre 0x9d007574            0xc          12   
.text.SYS_CLK_Periphera 0x9d007580            0xc          12   
.text.xTaskGetTickCount 0x9d00758c            0xc          12   
.text.uxQueueMessagesWa 0x9d007598            0xc          12   
.text.SYS_DEVCON_Tasks  0x9d0075a4            0x8           8   
.text.vPortFree         0x9d0075ac            0x8           8   
.text.vListInitialiseIt 0x9d0075b4            0x8           8   
.rodata                 0x9d0075bc            0x8           8  Read-only const 
.text._on_reset         0x9d0075c4            0x8           8   
.text._on_bootstrap     0x9d0075cc            0x8           8   
.rodata                 0x9d0075d4            0x8           8  Read-only const 
      Total kseg0_program_mem used  :      0x75dc       30172  5.8% of 0x80000

kseg0 Boot-Memory Usage
section                    address  length [bytes]      (dec)  Description
-------                 ----------  -------------------------  -----------
         Total kseg0_boot_mem used  :           0           0  <1% of 0x970

Exception-Memory Usage 
section                    address  length [bytes]      (dec)  Description
-------                 ----------  -------------------------  -----------
.app_excpt              0x9fc01180           0x10          16  General-Exception 
.vector_0               0x9fc01200            0x8           8  Interrupt Vector 0 
.vector_1               0x9fc01220            0x8           8  Interrupt Vector 1 
.vector_2               0x9fc01240            0x8           8  Interrupt Vector 2 
.vector_3               0x9fc01260            0x8           8  Interrupt Vector 3 
.vector_4               0x9fc01280            0x8           8  Interrupt Vector 4 
.vector_5               0x9fc012a0            0x8           8  Interrupt Vector 5 
.vector_6               0x9fc012c0            0x8           8  Interrupt Vector 6 
.vector_7               0x9fc012e0            0x8           8  Interrupt Vector 7 
.vector_8               0x9fc01300            0x8           8  Interrupt Vector 8 
.vector_9               0x9fc01320            0x8           8  Interrupt Vector 9 
.vector_10              0x9fc01340            0x8           8  Interrupt Vector 10 
.vector_11              0x9fc01360            0x8           8  Interrupt Vector 11 
.vector_12              0x9fc01380            0x8           8  Interrupt Vector 12 
.vector_13              0x9fc013a0            0x8           8  Interrupt Vector 13 
.vector_14              0x9fc013c0            0x8           8  Interrupt Vector 14 
.vector_15              0x9fc013e0            0x8           8  Interrupt Vector 15 
.vector_16              0x9fc01400            0x8           8  Interrupt Vector 16 
.vector_17              0x9fc01420            0x8           8  Interrupt Vector 17 
.vector_18              0x9fc01440            0x8           8  Interrupt Vector 18 
.vector_19              0x9fc01460            0x8           8  Interrupt Vector 19 
.vector_20              0x9fc01480            0x8           8  Interrupt Vector 20 
.vector_21              0x9fc014a0            0x8           8  Interrupt Vector 21 
.vector_22              0x9fc014c0            0x8           8  Interrupt Vector 22 
.vector_23              0x9fc014e0            0x8           8  Interrupt Vector 23 
.vector_24              0x9fc01500           0x10          16  Interrupt Vector 24 
.vector_25              0x9fc01520            0x8           8  Interrupt Vector 25 
.vector_26              0x9fc01540            0x8           8  Interrupt Vector 26 
.vector_27              0x9fc01560           0x10          16  Interrupt Vector 27 
.vector_28              0x9fc01580            0x8           8  Interrupt Vector 28 
.vector_29              0x9fc015a0            0x8           8  Interrupt Vector 29 
.vector_30              0x9fc015c0            0x8           8  Interrupt Vector 30 
.vector_31              0x9fc015e0            0x8           8  Interrupt Vector 31 
.vector_32              0x9fc01600            0x8           8  Interrupt Vector 32 
.vector_33              0x9fc01620            0x8           8  Interrupt Vector 33 
.vector_34              0x9fc01640            0x8           8  Interrupt Vector 34 
.vector_35              0x9fc01660            0x8           8  Interrupt Vector 35 
.vector_36              0x9fc01680            0x8           8  Interrupt Vector 36 
.vector_37              0x9fc016a0            0x8           8  Interrupt Vector 37 
.vector_38              0x9fc016c0            0x8           8  Interrupt Vector 38 
.vector_39              0x9fc016e0            0x8           8  Interrupt Vector 39 
.vector_40              0x9fc01700            0x8           8  Interrupt Vector 40 
.vector_41              0x9fc01720            0x8           8  Interrupt Vector 41 
.vector_42              0x9fc01740            0x8           8  Interrupt Vector 42 
.vector_43              0x9fc01760            0x8           8  Interrupt Vector 43 
.vector_44              0x9fc01780            0x8           8  Interrupt Vector 44 
.vector_45              0x9fc017a0            0x8           8  Interrupt Vector 45 
.vector_46              0x9fc017c0            0x8           8  Interrupt Vector 46 
.vector_47              0x9fc017e0            0x8           8  Interrupt Vector 47 
.vector_48              0x9fc01800            0x8           8  Interrupt Vector 48 
.vector_49              0x9fc01820            0x8           8  Interrupt Vector 49 
.vector_50              0x9fc01840            0x8           8  Interrupt Vector 50 
.vector_51              0x9fc01860            0x8           8  Interrupt Vector 51 
          Total exception_mem used  :       0x1c0         448  10.9% of 0x1000

kseg1 Boot-Memory Usage
section                    address  length [bytes]      (dec)  Description
-------                 ----------  -------------------------  -----------
.reset                  0xbfc00000          0x1f4         500  Reset handler 
.bev_excpt              0xbfc00380           0x10          16  BEV-Exception 
.dbg_excpt              0xbfc00480            0x8           8   
         Total kseg1_boot_mem used  :       0x20c         524  44.9% of 0x490
        --------------------------------------------------------------------------
         Total Program Memory used  :      0x79a8       31144  5.9% of 0x81e00
        --------------------------------------------------------------------------


kseg1 Data-Memory Usage
section                    address  length [bytes]      (dec)  Description
-------                 ----------  -------------------------  -----------
.dbg_data               0xa0000000          0x200         512  Memory reserved for debugger exec 
.sdata                  0xa0000200            0x8           8  Small init data 
.sbss                   0xa0000208           0x74         116  Small uninit data 
.bss                    0xa000027c          0x42c        1068  Uninitialized data 
.bss                    0xa00006a8        0x19640      104000  Uninitialized data 
.data                   0xa0019ce8          0x14c         332  Initialized data 
.bss                    0xa0019e34           0x28          40  Uninitialized data 
.data.math_errhandling_ 0xa0019e5c            0x4           4   
.bss.errno              0xa0019e60            0x4           4   
         Total kseg1_data_mem used  :     0x19e64      106084  80.9% of 0x20000
        --------------------------------------------------------------------------
            Total Data Memory used  :     0x19e64      106084  80.9% of 0x20000
        --------------------------------------------------------------------------


Dynamic Data-Memory Reservation
section                    address  length [bytes]      (dec)  Description
-------                 ----------  -------------------------  -----------
heap                    0xa0019e68              0           0  Reserved for heap 
stack                   0xa0019e80         0x6170       24944  Reserved for stack 

        --------------------------------------------------------------------------

Discarded input sections

 .text          0x00000000        0x0 c:/program files (x86)/microchip/xc32/v1.40/bin/bin/../../lib/gcc/pic32mx/4.8.3/../../../../pic32mx/lib/./proc/32MX795F512L/crt0_mips32r2.o
 .data          0x00000000        0x0 c:/program files (x86)/microchip/xc32/v1.40/bin/bin/../../lib/gcc/pic32mx/4.8.3/../../../../pic32mx/lib/./proc/32MX795F512L/crt0_mips32r2.o
 .bss           0x00000000        0x0 c:/program files (x86)/microchip/xc32/v1.40/bin/bin/../../lib/gcc/pic32mx/4.8.3/../../../../pic32mx/lib/./proc/32MX795F512L/crt0_mips32r2.o
 .text          0x00000000        0x0 c:/program files (x86)/microchip/xc32/v1.40/bin/bin/../../lib/gcc/pic32mx/4.8.3/../../../../pic32mx/lib\software-debug-break.o
 .data          0x00000000        0x0 c:/program files (x86)/microchip/xc32/v1.40/bin/bin/../../lib/gcc/pic32mx/4.8.3/../../../../pic32mx/lib\software-debug-break.o
 .bss           0x00000000        0x0 c:/program files (x86)/microchip/xc32/v1.40/bin/bin/../../lib/gcc/pic32mx/4.8.3/../../../../pic32mx/lib\software-debug-break.o
 .reginfo       0x00000000       0x18 c:/program files (x86)/microchip/xc32/v1.40/bin/bin/../../lib/gcc/pic32mx/4.8.3/../../../../pic32mx/lib\software-debug-break.o
 .text          0x00000000        0x0 build/default/debug/_ext/1361460060/drv_adc_static.o
 .data          0x00000000        0x0 build/default/debug/_ext/1361460060/drv_adc_static.o
 .bss           0x00000000        0x0 build/default/debug/_ext/1361460060/drv_adc_static.o
 .reginfo       0x00000000       0x18 build/default/debug/_ext/1361460060/drv_adc_static.o
 .text.DRV_ADC_DeInitialize
                0x00000000       0x18 build/default/debug/_ext/1361460060/drv_adc_static.o
 .text.DRV_ADC_Open
                0x00000000       0x18 build/default/debug/_ext/1361460060/drv_adc_static.o
 .text.DRV_ADC_Close
                0x00000000       0x18 build/default/debug/_ext/1361460060/drv_adc_static.o
 .text.DRV_ADC_Start
                0x00000000       0x18 build/default/debug/_ext/1361460060/drv_adc_static.o
 .text.DRV_ADC_Stop
                0x00000000       0x18 build/default/debug/_ext/1361460060/drv_adc_static.o
 .text.DRV_ADC_NegativeInputSelect
                0x00000000       0x50 build/default/debug/_ext/1361460060/drv_adc_static.o
 .text.DRV_ADC_PositiveInputSelect
                0x00000000       0x64 build/default/debug/_ext/1361460060/drv_adc_static.o
 .text.DRV_ADC_ChannelScanInputsAdd
                0x00000000       0x14 build/default/debug/_ext/1361460060/drv_adc_static.o
 .text.DRV_ADC_ChannelScanInputsRemove
                0x00000000       0x14 build/default/debug/_ext/1361460060/drv_adc_static.o
 .text.DRV_ADC_SamplesRead
                0x00000000       0x20 build/default/debug/_ext/1361460060/drv_adc_static.o
 .text.DRV_ADC_SamplesAvailable
                0x00000000       0x1c build/default/debug/_ext/1361460060/drv_adc_static.o
 .text          0x00000000        0x0 build/default/debug/_ext/1345626252/drv_usart_static.o
 .data          0x00000000        0x0 build/default/debug/_ext/1345626252/drv_usart_static.o
 .bss           0x00000000        0x0 build/default/debug/_ext/1345626252/drv_usart_static.o
 .reginfo       0x00000000       0x18 build/default/debug/_ext/1345626252/drv_usart_static.o
 .text.DRV_USART0_WriteByte
                0x00000000       0x18 build/default/debug/_ext/1345626252/drv_usart_static.o
 .text          0x00000000        0x0 build/default/debug/_ext/639803181/sys_clk_static.o
 .data          0x00000000        0x0 build/default/debug/_ext/639803181/sys_clk_static.o
 .bss           0x00000000        0x0 build/default/debug/_ext/639803181/sys_clk_static.o
 .reginfo       0x00000000       0x18 build/default/debug/_ext/639803181/sys_clk_static.o
 .text.SYS_CLK_ReferenceClockFrequencyGet
                0x00000000        0x8 build/default/debug/_ext/639803181/sys_clk_static.o
 .text          0x00000000        0x0 build/default/debug/_ext/822048611/sys_ports_static.o
 .data          0x00000000        0x0 build/default/debug/_ext/822048611/sys_ports_static.o
 .bss           0x00000000        0x0 build/default/debug/_ext/822048611/sys_ports_static.o
 .reginfo       0x00000000       0x18 build/default/debug/_ext/822048611/sys_ports_static.o
 .text          0x00000000        0x0 build/default/debug/_ext/1688732426/system_init.o
 .data          0x00000000        0x0 build/default/debug/_ext/1688732426/system_init.o
 .bss           0x00000000        0x0 build/default/debug/_ext/1688732426/system_init.o
 .reginfo       0x00000000       0x18 build/default/debug/_ext/1688732426/system_init.o
 .text          0x00000000        0x0 build/default/debug/_ext/1688732426/system_interrupt_a.o
 .data          0x00000000        0x0 build/default/debug/_ext/1688732426/system_interrupt_a.o
 .bss           0x00000000        0x0 build/default/debug/_ext/1688732426/system_interrupt_a.o
 .reginfo       0x00000000       0x18 build/default/debug/_ext/1688732426/system_interrupt_a.o
 .text          0x00000000        0x0 build/default/debug/_ext/1688732426/system_exceptions.o
 .bss           0x00000000        0x0 build/default/debug/_ext/1688732426/system_exceptions.o
 .reginfo       0x00000000       0x18 build/default/debug/_ext/1688732426/system_exceptions.o
 .text          0x00000000        0x0 build/default/debug/_ext/1688732426/system_tasks.o
 .data          0x00000000        0x0 build/default/debug/_ext/1688732426/system_tasks.o
 .bss           0x00000000        0x0 build/default/debug/_ext/1688732426/system_tasks.o
 .reginfo       0x00000000       0x18 build/default/debug/_ext/1688732426/system_tasks.o
 .text          0x00000000        0x0 build/default/debug/_ext/1688732426/system_interrupt.o
 .data          0x00000000        0x0 build/default/debug/_ext/1688732426/system_interrupt.o
 .bss           0x00000000        0x0 build/default/debug/_ext/1688732426/system_interrupt.o
 .reginfo       0x00000000       0x18 build/default/debug/_ext/1688732426/system_interrupt.o
 .text          0x00000000        0x0 build/default/debug/_ext/1688732426/rtos_hooks.o
 .data          0x00000000        0x0 build/default/debug/_ext/1688732426/rtos_hooks.o
 .bss           0x00000000        0x0 build/default/debug/_ext/1688732426/rtos_hooks.o
 .reginfo       0x00000000       0x18 build/default/debug/_ext/1688732426/rtos_hooks.o
 .text          0x00000000        0x0 build/default/debug/_ext/1360937237/timerCallback.o
 .data          0x00000000        0x0 build/default/debug/_ext/1360937237/timerCallback.o
 .bss           0x00000000        0x0 build/default/debug/_ext/1360937237/timerCallback.o
 .reginfo       0x00000000       0x18 build/default/debug/_ext/1360937237/timerCallback.o
 .text          0x00000000        0x0 build/default/debug/_ext/1360937237/sender.o
 .data          0x00000000        0x0 build/default/debug/_ext/1360937237/sender.o
 .bss           0x00000000        0x0 build/default/debug/_ext/1360937237/sender.o
 .reginfo       0x00000000       0x18 build/default/debug/_ext/1360937237/sender.o
 .text.writeString
                0x00000000       0x40 build/default/debug/_ext/1360937237/sender.o
 .text.writeMsgStr
                0x00000000       0x7c build/default/debug/_ext/1360937237/sender.o
 .text.writeMsgChar
                0x00000000       0xc4 build/default/debug/_ext/1360937237/sender.o
 .text.writeMsgShortInt
                0x00000000       0x88 build/default/debug/_ext/1360937237/sender.o
 .text.writeMESSAGE
                0x00000000       0x48 build/default/debug/_ext/1360937237/sender.o
 .text          0x00000000        0x0 build/default/debug/_ext/1360937237/main.o
 .data          0x00000000        0x0 build/default/debug/_ext/1360937237/main.o
 .bss           0x00000000        0x0 build/default/debug/_ext/1360937237/main.o
 .reginfo       0x00000000       0x18 build/default/debug/_ext/1360937237/main.o
 .text          0x00000000        0x0 build/default/debug/_ext/1360937237/process.o
 .data          0x00000000        0x0 build/default/debug/_ext/1360937237/process.o
 .bss           0x00000000        0x0 build/default/debug/_ext/1360937237/process.o
 .reginfo       0x00000000       0x18 build/default/debug/_ext/1360937237/process.o
 .text.distanceToMove
                0x00000000       0x14 build/default/debug/_ext/1360937237/process.o
 .text.maximum  0x00000000       0x10 build/default/debug/_ext/1360937237/process.o
 .text          0x00000000        0x0 build/default/debug/_ext/1360937237/receive.o
 .data          0x00000000        0x0 build/default/debug/_ext/1360937237/receive.o
 .bss           0x00000000        0x0 build/default/debug/_ext/1360937237/receive.o
 .reginfo       0x00000000       0x18 build/default/debug/_ext/1360937237/receive.o
 .text.clearBuffer
                0x00000000        0xc build/default/debug/_ext/1360937237/receive.o
 .text.sendTokenAlert
                0x00000000       0x24 build/default/debug/_ext/1360937237/receive.o
 .text.processSensorData
                0x00000000       0x5c build/default/debug/_ext/1360937237/receive.o
 .text          0x00000000        0x0 build/default/debug/_ext/1360937237/send.o
 .data          0x00000000        0x0 build/default/debug/_ext/1360937237/send.o
 .bss           0x00000000        0x0 build/default/debug/_ext/1360937237/send.o
 .reginfo       0x00000000       0x18 build/default/debug/_ext/1360937237/send.o
 .text          0x00000000        0x0 build/default/debug/_ext/308321468/osal_freertos.o
 .data          0x00000000        0x0 build/default/debug/_ext/308321468/osal_freertos.o
 .bss           0x00000000        0x0 build/default/debug/_ext/308321468/osal_freertos.o
 .reginfo       0x00000000       0x18 build/default/debug/_ext/308321468/osal_freertos.o
 .text.OSAL_CRIT_Enter
                0x00000000       0x48 build/default/debug/_ext/308321468/osal_freertos.o
 .text.OSAL_CRIT_Leave
                0x00000000       0x44 build/default/debug/_ext/308321468/osal_freertos.o
 .text.OSAL_SEM_Create
                0x00000000       0x94 build/default/debug/_ext/308321468/osal_freertos.o
 .text.OSAL_SEM_Delete
                0x00000000       0x30 build/default/debug/_ext/308321468/osal_freertos.o
 .text.OSAL_SEM_Pend
                0x00000000       0x44 build/default/debug/_ext/308321468/osal_freertos.o
 .text.OSAL_SEM_Post
                0x00000000       0x30 build/default/debug/_ext/308321468/osal_freertos.o
 .text.OSAL_SEM_PostISR
                0x00000000       0x4c build/default/debug/_ext/308321468/osal_freertos.o
 .text.OSAL_SEM_GetCount
                0x00000000       0x2c build/default/debug/_ext/308321468/osal_freertos.o
 .text.OSAL_MUTEX_Create
                0x00000000       0x3c build/default/debug/_ext/308321468/osal_freertos.o
 .text.OSAL_MUTEX_Delete
                0x00000000       0x3c build/default/debug/_ext/308321468/osal_freertos.o
 .text.OSAL_MUTEX_Lock
                0x00000000       0x44 build/default/debug/_ext/308321468/osal_freertos.o
 .text.OSAL_MUTEX_Unlock
                0x00000000       0x30 build/default/debug/_ext/308321468/osal_freertos.o
 .rodata        0x00000000        0xc build/default/debug/_ext/308321468/osal_freertos.o
 .text.OSAL_Name
                0x00000000        0xc build/default/debug/_ext/308321468/osal_freertos.o
 .text.OSAL_Initialize
                0x00000000        0x8 build/default/debug/_ext/308321468/osal_freertos.o
 .text          0x00000000        0x0 build/default/debug/_ext/482662494/sys_devcon.o
 .data          0x00000000        0x0 build/default/debug/_ext/482662494/sys_devcon.o
 .bss           0x00000000        0x0 build/default/debug/_ext/482662494/sys_devcon.o
 .reginfo       0x00000000       0x18 build/default/debug/_ext/482662494/sys_devcon.o
 .text.SYS_DEVCON_Reinitialize
                0x00000000       0x10 build/default/debug/_ext/482662494/sys_devcon.o
 .text.SYS_DEVCON_Deinitialize
                0x00000000        0x8 build/default/debug/_ext/482662494/sys_devcon.o
 .text.SYS_DEVCON_Status
                0x00000000        0x8 build/default/debug/_ext/482662494/sys_devcon.o
 .text.SYS_DEVCON_JTAGEnable
                0x00000000       0x18 build/default/debug/_ext/482662494/sys_devcon.o
 .text.SYS_DEVCON_TraceEnable
                0x00000000       0x18 build/default/debug/_ext/482662494/sys_devcon.o
 .text.SYS_DEVCON_TraceDisable
                0x00000000       0x18 build/default/debug/_ext/482662494/sys_devcon.o
 .text.SYS_DEVCON_PowerModeEnter
                0x00000000       0x54 build/default/debug/_ext/482662494/sys_devcon.o
 .text          0x00000000        0x0 build/default/debug/_ext/482662494/sys_devcon_pic32mx.o
 .data          0x00000000        0x0 build/default/debug/_ext/482662494/sys_devcon_pic32mx.o
 .bss           0x00000000        0x0 build/default/debug/_ext/482662494/sys_devcon_pic32mx.o
 .reginfo       0x00000000       0x18 build/default/debug/_ext/482662494/sys_devcon_pic32mx.o
 .text          0x00000000        0x0 build/default/debug/_ext/1042686532/sys_int_pic32.o
 .data          0x00000000        0x0 build/default/debug/_ext/1042686532/sys_int_pic32.o
 .bss           0x00000000        0x0 build/default/debug/_ext/1042686532/sys_int_pic32.o
 .reginfo       0x00000000       0x18 build/default/debug/_ext/1042686532/sys_int_pic32.o
 .text.SYS_INT_StatusGetAndDisable
                0x00000000       0x1c build/default/debug/_ext/1042686532/sys_int_pic32.o
 .text.SYS_INT_StatusRestore
                0x00000000       0x1c build/default/debug/_ext/1042686532/sys_int_pic32.o
 .text.SYS_INT_Disable
                0x00000000       0x20 build/default/debug/_ext/1042686532/sys_int_pic32.o
 .text.SYS_INT_SourceDisable
                0x00000000       0x58 build/default/debug/_ext/1042686532/sys_int_pic32.o
 .text.SYS_INT_ExternalInterruptTriggerSet
                0x00000000       0x34 build/default/debug/_ext/1042686532/sys_int_pic32.o
 .text          0x00000000        0x0 build/default/debug/_ext/826631961/sys_ports.o
 .data          0x00000000        0x0 build/default/debug/_ext/826631961/sys_ports.o
 .bss           0x00000000        0x0 build/default/debug/_ext/826631961/sys_ports.o
 .reginfo       0x00000000       0x18 build/default/debug/_ext/826631961/sys_ports.o
 .text.SYS_PORTS_Read
                0x00000000       0x38 build/default/debug/_ext/826631961/sys_ports.o
 .text.SYS_PORTS_Write
                0x00000000       0x2c build/default/debug/_ext/826631961/sys_ports.o
 .text.SYS_PORTS_Set
                0x00000000       0x38 build/default/debug/_ext/826631961/sys_ports.o
 .text.SYS_PORTS_Clear
                0x00000000       0x34 build/default/debug/_ext/826631961/sys_ports.o
 .text.SYS_PORTS_DirectionSelect
                0x00000000       0x6c build/default/debug/_ext/826631961/sys_ports.o
 .text.SYS_PORTS_DirectionGet
                0x00000000       0x38 build/default/debug/_ext/826631961/sys_ports.o
 .text.SYS_PORTS_Toggle
                0x00000000       0x34 build/default/debug/_ext/826631961/sys_ports.o
 .text.SYS_PORTS_OpenDrainEnable
                0x00000000       0x34 build/default/debug/_ext/826631961/sys_ports.o
 .text.SYS_PORTS_OpenDrainDisable
                0x00000000       0x34 build/default/debug/_ext/826631961/sys_ports.o
 .text.SYS_PORTS_ChangeNotificationGlobalEnable
                0x00000000       0x1c build/default/debug/_ext/826631961/sys_ports.o
 .text.SYS_PORTS_GlobalChangeNotificationDisable
                0x00000000       0x1c build/default/debug/_ext/826631961/sys_ports.o
 .text.SYS_PORTS_ChangeNotificationEnable
                0x00000000       0x78 build/default/debug/_ext/826631961/sys_ports.o
 .text.SYS_PORTS_ChangeNotificationDisable
                0x00000000       0x20 build/default/debug/_ext/826631961/sys_ports.o
 .text.SYS_PORTS_ChangeNotificationInIdleModeEnable
                0x00000000       0x1c build/default/debug/_ext/826631961/sys_ports.o
 .text.SYS_PORTS_ChangeNotificationInIdleModeDisable
                0x00000000       0x1c build/default/debug/_ext/826631961/sys_ports.o
 .text.SYS_PORTS_ChangeNotificationPullUpEnable
                0x00000000       0x20 build/default/debug/_ext/826631961/sys_ports.o
 .text.SYS_PORTS_ChangeNotificationPullUpDisable
                0x00000000       0x20 build/default/debug/_ext/826631961/sys_ports.o
 .text.SYS_PORTS_PinModeSelect
                0x00000000       0x38 build/default/debug/_ext/826631961/sys_ports.o
 .text.SYS_PORTS_PinWrite
                0x00000000       0x4c build/default/debug/_ext/826631961/sys_ports.o
 .text.SYS_PORTS_PinRead
                0x00000000       0x44 build/default/debug/_ext/826631961/sys_ports.o
 .text.SYS_PORTS_PinToggle
                0x00000000       0x38 build/default/debug/_ext/826631961/sys_ports.o
 .text.SYS_PORTS_PinSet
                0x00000000       0x38 build/default/debug/_ext/826631961/sys_ports.o
 .text.SYS_PORTS_PinClear
                0x00000000       0x38 build/default/debug/_ext/826631961/sys_ports.o
 .text.SYS_PORTS_PinDirectionSelect
                0x00000000       0x78 build/default/debug/_ext/826631961/sys_ports.o
 .text.SYS_PORTS_PinOpenDrainEnable
                0x00000000       0x38 build/default/debug/_ext/826631961/sys_ports.o
 .text.SYS_PORTS_PinOpenDrainDisable
                0x00000000       0x38 build/default/debug/_ext/826631961/sys_ports.o
 .text.SYS_PORTS_RemapInput
                0x00000000       0x28 build/default/debug/_ext/826631961/sys_ports.o
 .text.SYS_PORTS_RemapOutput
                0x00000000       0x28 build/default/debug/_ext/826631961/sys_ports.o
 .text          0x00000000        0x0 build/default/debug/_ext/1107379230/heap_1.o
 .data          0x00000000        0x0 build/default/debug/_ext/1107379230/heap_1.o
 .reginfo       0x00000000       0x18 build/default/debug/_ext/1107379230/heap_1.o
 .text.vPortInitialiseBlocks
                0x00000000        0x8 build/default/debug/_ext/1107379230/heap_1.o
 .text.xPortGetFreeHeapSize
                0x00000000       0x14 build/default/debug/_ext/1107379230/heap_1.o
 .data          0x00000000        0x0 build/default/debug/_ext/1282498059/port_asm.o
 .bss           0x00000000        0x0 build/default/debug/_ext/1282498059/port_asm.o
 .reginfo       0x00000000       0x18 build/default/debug/_ext/1282498059/port_asm.o
 .text          0x00000000        0x0 build/default/debug/_ext/1282498059/port.o
 .data          0x00000000        0x0 build/default/debug/_ext/1282498059/port.o
 .reginfo       0x00000000       0x18 build/default/debug/_ext/1282498059/port.o
 .text.vPortEndScheduler
                0x00000000        0x8 build/default/debug/_ext/1282498059/port.o
 .text          0x00000000        0x0 build/default/debug/_ext/373060831/list.o
 .data          0x00000000        0x0 build/default/debug/_ext/373060831/list.o
 .bss           0x00000000        0x0 build/default/debug/_ext/373060831/list.o
 .reginfo       0x00000000       0x18 build/default/debug/_ext/373060831/list.o
 .text          0x00000000        0x0 build/default/debug/_ext/373060831/croutine.o
 .data          0x00000000        0x0 build/default/debug/_ext/373060831/croutine.o
 .bss           0x00000000        0x0 build/default/debug/_ext/373060831/croutine.o
 .reginfo       0x00000000       0x18 build/default/debug/_ext/373060831/croutine.o
 .text          0x00000000        0x0 build/default/debug/_ext/373060831/tasks.o
 .data          0x00000000        0x0 build/default/debug/_ext/373060831/tasks.o
 .bss           0x00000000        0x0 build/default/debug/_ext/373060831/tasks.o
 .reginfo       0x00000000       0x18 build/default/debug/_ext/373060831/tasks.o
 .text.vTaskDelete
                0x00000000      0x110 build/default/debug/_ext/373060831/tasks.o
 .text.vTaskDelayUntil
                0x00000000       0xd8 build/default/debug/_ext/373060831/tasks.o
 .text.vTaskDelay
                0x00000000       0x90 build/default/debug/_ext/373060831/tasks.o
 .text.uxTaskPriorityGet
                0x00000000       0x38 build/default/debug/_ext/373060831/tasks.o
 .text.uxTaskPriorityGetFromISR
                0x00000000       0x3c build/default/debug/_ext/373060831/tasks.o
 .text.vTaskPrioritySet
                0x00000000      0x15c build/default/debug/_ext/373060831/tasks.o
 .text.vTaskSuspend
                0x00000000      0x138 build/default/debug/_ext/373060831/tasks.o
 .text.prvTaskIsTaskSuspended
                0x00000000       0x38 build/default/debug/_ext/373060831/tasks.o
 .text.vTaskResume
                0x00000000       0xc4 build/default/debug/_ext/373060831/tasks.o
 .text.xTaskResumeFromISR
                0x00000000       0xdc build/default/debug/_ext/373060831/tasks.o
 .text.vTaskEndScheduler
                0x00000000       0x3c build/default/debug/_ext/373060831/tasks.o
 .text.xTaskGetTickCountFromISR
                0x00000000        0xc build/default/debug/_ext/373060831/tasks.o
 .text.uxTaskGetNumberOfTasks
                0x00000000        0xc build/default/debug/_ext/373060831/tasks.o
 .text.vTaskPlaceOnUnorderedEventList
                0x00000000       0xa4 build/default/debug/_ext/373060831/tasks.o
 .text.xTaskRemoveFromUnorderedEventList
                0x00000000       0x9c build/default/debug/_ext/373060831/tasks.o
 .text.xTaskGetCurrentTaskHandle
                0x00000000        0xc build/default/debug/_ext/373060831/tasks.o
 .text.uxTaskResetEventItemValue
                0x00000000       0x24 build/default/debug/_ext/373060831/tasks.o
 .text.ulTaskNotifyTake
                0x00000000      0x128 build/default/debug/_ext/373060831/tasks.o
 .text.xTaskNotifyWait
                0x00000000      0x160 build/default/debug/_ext/373060831/tasks.o
 .text.xTaskGenericNotify
                0x00000000      0x168 build/default/debug/_ext/373060831/tasks.o
 .text.xTaskNotifyFromISR
                0x00000000      0x184 build/default/debug/_ext/373060831/tasks.o
 .text.vTaskNotifyGiveFromISR
                0x00000000       0xf8 build/default/debug/_ext/373060831/tasks.o
 .text          0x00000000        0x0 build/default/debug/_ext/373060831/event_groups.o
 .data          0x00000000        0x0 build/default/debug/_ext/373060831/event_groups.o
 .bss           0x00000000        0x0 build/default/debug/_ext/373060831/event_groups.o
 .reginfo       0x00000000       0x18 build/default/debug/_ext/373060831/event_groups.o
 .text.xEventGroupCreate
                0x00000000       0x3c build/default/debug/_ext/373060831/event_groups.o
 .text.xEventGroupSync
                0x00000000      0x110 build/default/debug/_ext/373060831/event_groups.o
 .text.xEventGroupWaitBits
                0x00000000      0x148 build/default/debug/_ext/373060831/event_groups.o
 .text.xEventGroupClearBits
                0x00000000       0x50 build/default/debug/_ext/373060831/event_groups.o
 .text.xEventGroupGetBitsFromISR
                0x00000000       0x34 build/default/debug/_ext/373060831/event_groups.o
 .text.xEventGroupSetBits
                0x00000000       0xfc build/default/debug/_ext/373060831/event_groups.o
 .text.vEventGroupDelete
                0x00000000       0x58 build/default/debug/_ext/373060831/event_groups.o
 .text.vEventGroupSetBitsCallback
                0x00000000       0x1c build/default/debug/_ext/373060831/event_groups.o
 .text.vEventGroupClearBitsCallback
                0x00000000       0x1c build/default/debug/_ext/373060831/event_groups.o
 .text          0x00000000        0x0 build/default/debug/_ext/373060831/timers.o
 .data          0x00000000        0x0 build/default/debug/_ext/373060831/timers.o
 .reginfo       0x00000000       0x18 build/default/debug/_ext/373060831/timers.o
 .text.pcTimerGetTimerName
                0x00000000        0x8 build/default/debug/_ext/373060831/timers.o
 .text.xTimerIsTimerActive
                0x00000000       0x34 build/default/debug/_ext/373060831/timers.o
 .text.pvTimerGetTimerID
                0x00000000       0x30 build/default/debug/_ext/373060831/timers.o
 .text.vTimerSetTimerID
                0x00000000       0x38 build/default/debug/_ext/373060831/timers.o
 .text          0x00000000        0x0 build/default/debug/_ext/373060831/queue.o
 .data          0x00000000        0x0 build/default/debug/_ext/373060831/queue.o
 .bss           0x00000000        0x0 build/default/debug/_ext/373060831/queue.o
 .reginfo       0x00000000       0x18 build/default/debug/_ext/373060831/queue.o
 .text.xQueueCreateMutex
                0x00000000       0x80 build/default/debug/_ext/373060831/queue.o
 .text.xQueueCreateCountingSemaphore
                0x00000000       0x34 build/default/debug/_ext/373060831/queue.o
 .text.xQueueGiveFromISR
                0x00000000       0xc4 build/default/debug/_ext/373060831/queue.o
 .text.xQueuePeekFromISR
                0x00000000       0x74 build/default/debug/_ext/373060831/queue.o
 .text.uxQueueMessagesWaiting
                0x00000000       0x34 build/default/debug/_ext/373060831/queue.o
 .text.vQueueDelete
                0x00000000       0x1c build/default/debug/_ext/373060831/queue.o
 .text.xQueueIsQueueEmptyFromISR
                0x00000000        0xc build/default/debug/_ext/373060831/queue.o
 .text.xQueueIsQueueFullFromISR
                0x00000000       0x14 build/default/debug/_ext/373060831/queue.o
 .text          0x00000000        0x0 build/default/debug/_ext/1360937237/debug.o
 .data          0x00000000        0x0 build/default/debug/_ext/1360937237/debug.o
 .bss           0x00000000        0x0 build/default/debug/_ext/1360937237/debug.o
 .reginfo       0x00000000       0x18 build/default/debug/_ext/1360937237/debug.o
 .text          0x00000000        0x0 c:/program files (x86)/microchip/xc32/v1.40/bin/bin/../../lib/gcc/pic32mx/4.8.3/../../../../pic32mx/lib/./proc/32MX795F512L\default_isr_vectors.o
 .data          0x00000000        0x0 c:/program files (x86)/microchip/xc32/v1.40/bin/bin/../../lib/gcc/pic32mx/4.8.3/../../../../pic32mx/lib/./proc/32MX795F512L\default_isr_vectors.o
 .bss           0x00000000        0x0 c:/program files (x86)/microchip/xc32/v1.40/bin/bin/../../lib/gcc/pic32mx/4.8.3/../../../../pic32mx/lib/./proc/32MX795F512L\default_isr_vectors.o
 .reginfo       0x00000000       0x18 c:/program files (x86)/microchip/xc32/v1.40/bin/bin/../../lib/gcc/pic32mx/4.8.3/../../../../pic32mx/lib/./proc/32MX795F512L\default_isr_vectors.o
 .discard       0x00000000       0xd0 c:/program files (x86)/microchip/xc32/v1.40/bin/bin/../../lib/gcc/pic32mx/4.8.3/../../../../pic32mx/lib/./proc/32MX795F512L\default_isr_vectors.o
 .data          0x00000000        0x0 c:/program files (x86)/microchip/xc32/v1.40/bin/bin/../../lib/gcc/pic32mx/4.8.3/../../../../pic32mx/lib\pic32_software_reset.o
 .bss           0x00000000        0x0 c:/program files (x86)/microchip/xc32/v1.40/bin/bin/../../lib/gcc/pic32mx/4.8.3/../../../../pic32mx/lib\pic32_software_reset.o
 .reginfo       0x00000000       0x18 c:/program files (x86)/microchip/xc32/v1.40/bin/bin/../../lib/gcc/pic32mx/4.8.3/../../../../pic32mx/lib\pic32_software_reset.o
 .text          0x00000000        0x0 c:/program files (x86)/microchip/xc32/v1.40/bin/bin/../../lib/gcc/pic32mx/4.8.3/../../../../pic32mx/lib/./proc/32MX795F512L\processor.o
 .data          0x00000000        0x0 c:/program files (x86)/microchip/xc32/v1.40/bin/bin/../../lib/gcc/pic32mx/4.8.3/../../../../pic32mx/lib/./proc/32MX795F512L\processor.o
 .bss           0x00000000        0x0 c:/program files (x86)/microchip/xc32/v1.40/bin/bin/../../lib/gcc/pic32mx/4.8.3/../../../../pic32mx/lib/./proc/32MX795F512L\processor.o
 .reginfo       0x00000000       0x18 c:/program files (x86)/microchip/xc32/v1.40/bin/bin/../../lib/gcc/pic32mx/4.8.3/../../../../pic32mx/lib/./proc/32MX795F512L\processor.o
 .data          0x00000000        0x0 c:/program files (x86)/microchip/xc32/v1.40/bin/bin/../../lib/gcc/pic32mx/4.8.3/../../../../pic32mx/lib\libpic32.a(memcpy.o)
 .bss           0x00000000        0x0 c:/program files (x86)/microchip/xc32/v1.40/bin/bin/../../lib/gcc/pic32mx/4.8.3/../../../../pic32mx/lib\libpic32.a(memcpy.o)
 .reginfo       0x00000000       0x18 c:/program files (x86)/microchip/xc32/v1.40/bin/bin/../../lib/gcc/pic32mx/4.8.3/../../../../pic32mx/lib\libpic32.a(memcpy.o)
 .data          0x00000000        0x0 c:/program files (x86)/microchip/xc32/v1.40/bin/bin/../../lib/gcc/pic32mx/4.8.3/../../../../pic32mx/lib\libpic32.a(memset.o)
 .bss           0x00000000        0x0 c:/program files (x86)/microchip/xc32/v1.40/bin/bin/../../lib/gcc/pic32mx/4.8.3/../../../../pic32mx/lib\libpic32.a(memset.o)
 .reginfo       0x00000000       0x18 c:/program files (x86)/microchip/xc32/v1.40/bin/bin/../../lib/gcc/pic32mx/4.8.3/../../../../pic32mx/lib\libpic32.a(memset.o)
 .text          0x00000000        0x0 c:/program files (x86)/microchip/xc32/v1.40/bin/bin/../../lib/gcc/pic32mx/4.8.3/../../../../pic32mx/lib\libpic32.a(default-bootstrap-exception-handler.o)
 .data          0x00000000        0x0 c:/program files (x86)/microchip/xc32/v1.40/bin/bin/../../lib/gcc/pic32mx/4.8.3/../../../../pic32mx/lib\libpic32.a(default-bootstrap-exception-handler.o)
 .bss           0x00000000        0x0 c:/program files (x86)/microchip/xc32/v1.40/bin/bin/../../lib/gcc/pic32mx/4.8.3/../../../../pic32mx/lib\libpic32.a(default-bootstrap-exception-handler.o)
 .reginfo       0x00000000       0x18 c:/program files (x86)/microchip/xc32/v1.40/bin/bin/../../lib/gcc/pic32mx/4.8.3/../../../../pic32mx/lib\libpic32.a(default-bootstrap-exception-handler.o)
 .text          0x00000000        0x0 c:/program files (x86)/microchip/xc32/v1.40/bin/bin/../../lib/gcc/pic32mx/4.8.3/../../../../pic32mx/lib\libpic32.a(default-on-reset.o)
 .data          0x00000000        0x0 c:/program files (x86)/microchip/xc32/v1.40/bin/bin/../../lib/gcc/pic32mx/4.8.3/../../../../pic32mx/lib\libpic32.a(default-on-reset.o)
 .bss           0x00000000        0x0 c:/program files (x86)/microchip/xc32/v1.40/bin/bin/../../lib/gcc/pic32mx/4.8.3/../../../../pic32mx/lib\libpic32.a(default-on-reset.o)
 .reginfo       0x00000000       0x18 c:/program files (x86)/microchip/xc32/v1.40/bin/bin/../../lib/gcc/pic32mx/4.8.3/../../../../pic32mx/lib\libpic32.a(default-on-reset.o)
 .text          0x00000000        0x0 c:/program files (x86)/microchip/xc32/v1.40/bin/bin/../../lib/gcc/pic32mx/4.8.3/../../../../pic32mx/lib\libpic32.a(default-on-bootstrap.o)
 .data          0x00000000        0x0 c:/program files (x86)/microchip/xc32/v1.40/bin/bin/../../lib/gcc/pic32mx/4.8.3/../../../../pic32mx/lib\libpic32.a(default-on-bootstrap.o)
 .bss           0x00000000        0x0 c:/program files (x86)/microchip/xc32/v1.40/bin/bin/../../lib/gcc/pic32mx/4.8.3/../../../../pic32mx/lib\libpic32.a(default-on-bootstrap.o)
 .reginfo       0x00000000       0x18 c:/program files (x86)/microchip/xc32/v1.40/bin/bin/../../lib/gcc/pic32mx/4.8.3/../../../../pic32mx/lib\libpic32.a(default-on-bootstrap.o)
 .data          0x00000000        0x0 c:/program files (x86)/microchip/xc32/v1.40/bin/bin/../../lib/gcc/pic32mx/4.8.3/../../../../pic32mx/lib\libpic32.a(default-nmi-handler.o)
 .bss           0x00000000        0x0 c:/program files (x86)/microchip/xc32/v1.40/bin/bin/../../lib/gcc/pic32mx/4.8.3/../../../../pic32mx/lib\libpic32.a(default-nmi-handler.o)
 .reginfo       0x00000000       0x18 c:/program files (x86)/microchip/xc32/v1.40/bin/bin/../../lib/gcc/pic32mx/4.8.3/../../../../pic32mx/lib\libpic32.a(default-nmi-handler.o)
 .text          0x00000000        0x0 c:/program files (x86)/microchip/xc32/v1.40/bin/bin/../../lib/gcc/pic32mx/4.8.3/../../../../pic32mx/lib\libpic32.a(general-exception.o)
 .data          0x00000000        0x0 c:/program files (x86)/microchip/xc32/v1.40/bin/bin/../../lib/gcc/pic32mx/4.8.3/../../../../pic32mx/lib\libpic32.a(general-exception.o)
 .bss           0x00000000        0x0 c:/program files (x86)/microchip/xc32/v1.40/bin/bin/../../lib/gcc/pic32mx/4.8.3/../../../../pic32mx/lib\libpic32.a(general-exception.o)
 .reginfo       0x00000000       0x18 c:/program files (x86)/microchip/xc32/v1.40/bin/bin/../../lib/gcc/pic32mx/4.8.3/../../../../pic32mx/lib\libpic32.a(general-exception.o)
 .text          0x00000000        0x0 c:/program files (x86)/microchip/xc32/v1.40/bin/bin/../../lib/gcc/pic32mx/4.8.3/../../../../pic32mx/lib\libpic32.a(vector0.o)
 .data          0x00000000        0x0 c:/program files (x86)/microchip/xc32/v1.40/bin/bin/../../lib/gcc/pic32mx/4.8.3/../../../../pic32mx/lib\libpic32.a(vector0.o)
 .bss           0x00000000        0x0 c:/program files (x86)/microchip/xc32/v1.40/bin/bin/../../lib/gcc/pic32mx/4.8.3/../../../../pic32mx/lib\libpic32.a(vector0.o)
 .reginfo       0x00000000       0x18 c:/program files (x86)/microchip/xc32/v1.40/bin/bin/../../lib/gcc/pic32mx/4.8.3/../../../../pic32mx/lib\libpic32.a(vector0.o)
 .text          0x00000000        0x0 c:/program files (x86)/microchip/xc32/v1.40/bin/bin/../../lib/gcc/pic32mx/4.8.3/../../../../pic32mx/lib\libpic32.a(vector2.o)
 .data          0x00000000        0x0 c:/program files (x86)/microchip/xc32/v1.40/bin/bin/../../lib/gcc/pic32mx/4.8.3/../../../../pic32mx/lib\libpic32.a(vector2.o)
 .bss           0x00000000        0x0 c:/program files (x86)/microchip/xc32/v1.40/bin/bin/../../lib/gcc/pic32mx/4.8.3/../../../../pic32mx/lib\libpic32.a(vector2.o)
 .reginfo       0x00000000       0x18 c:/program files (x86)/microchip/xc32/v1.40/bin/bin/../../lib/gcc/pic32mx/4.8.3/../../../../pic32mx/lib\libpic32.a(vector2.o)
 .text          0x00000000        0x0 c:/program files (x86)/microchip/xc32/v1.40/bin/bin/../../lib/gcc/pic32mx/4.8.3/../../../../pic32mx/lib\libpic32.a(vector3.o)
 .data          0x00000000        0x0 c:/program files (x86)/microchip/xc32/v1.40/bin/bin/../../lib/gcc/pic32mx/4.8.3/../../../../pic32mx/lib\libpic32.a(vector3.o)
 .bss           0x00000000        0x0 c:/program files (x86)/microchip/xc32/v1.40/bin/bin/../../lib/gcc/pic32mx/4.8.3/../../../../pic32mx/lib\libpic32.a(vector3.o)
 .reginfo       0x00000000       0x18 c:/program files (x86)/microchip/xc32/v1.40/bin/bin/../../lib/gcc/pic32mx/4.8.3/../../../../pic32mx/lib\libpic32.a(vector3.o)
 .text          0x00000000        0x0 c:/program files (x86)/microchip/xc32/v1.40/bin/bin/../../lib/gcc/pic32mx/4.8.3/../../../../pic32mx/lib\libpic32.a(vector5.o)
 .data          0x00000000        0x0 c:/program files (x86)/microchip/xc32/v1.40/bin/bin/../../lib/gcc/pic32mx/4.8.3/../../../../pic32mx/lib\libpic32.a(vector5.o)
 .bss           0x00000000        0x0 c:/program files (x86)/microchip/xc32/v1.40/bin/bin/../../lib/gcc/pic32mx/4.8.3/../../../../pic32mx/lib\libpic32.a(vector5.o)
 .reginfo       0x00000000       0x18 c:/program files (x86)/microchip/xc32/v1.40/bin/bin/../../lib/gcc/pic32mx/4.8.3/../../../../pic32mx/lib\libpic32.a(vector5.o)
 .text          0x00000000        0x0 c:/program files (x86)/microchip/xc32/v1.40/bin/bin/../../lib/gcc/pic32mx/4.8.3/../../../../pic32mx/lib\libpic32.a(vector6.o)
 .data          0x00000000        0x0 c:/program files (x86)/microchip/xc32/v1.40/bin/bin/../../lib/gcc/pic32mx/4.8.3/../../../../pic32mx/lib\libpic32.a(vector6.o)
 .bss           0x00000000        0x0 c:/program files (x86)/microchip/xc32/v1.40/bin/bin/../../lib/gcc/pic32mx/4.8.3/../../../../pic32mx/lib\libpic32.a(vector6.o)
 .reginfo       0x00000000       0x18 c:/program files (x86)/microchip/xc32/v1.40/bin/bin/../../lib/gcc/pic32mx/4.8.3/../../../../pic32mx/lib\libpic32.a(vector6.o)
 .text          0x00000000        0x0 c:/program files (x86)/microchip/xc32/v1.40/bin/bin/../../lib/gcc/pic32mx/4.8.3/../../../../pic32mx/lib\libpic32.a(vector7.o)
 .data          0x00000000        0x0 c:/program files (x86)/microchip/xc32/v1.40/bin/bin/../../lib/gcc/pic32mx/4.8.3/../../../../pic32mx/lib\libpic32.a(vector7.o)
 .bss           0x00000000        0x0 c:/program files (x86)/microchip/xc32/v1.40/bin/bin/../../lib/gcc/pic32mx/4.8.3/../../../../pic32mx/lib\libpic32.a(vector7.o)
 .reginfo       0x00000000       0x18 c:/program files (x86)/microchip/xc32/v1.40/bin/bin/../../lib/gcc/pic32mx/4.8.3/../../../../pic32mx/lib\libpic32.a(vector7.o)
 .text          0x00000000        0x0 c:/program files (x86)/microchip/xc32/v1.40/bin/bin/../../lib/gcc/pic32mx/4.8.3/../../../../pic32mx/lib\libpic32.a(vector8.o)
 .data          0x00000000        0x0 c:/program files (x86)/microchip/xc32/v1.40/bin/bin/../../lib/gcc/pic32mx/4.8.3/../../../../pic32mx/lib\libpic32.a(vector8.o)
 .bss           0x00000000        0x0 c:/program files (x86)/microchip/xc32/v1.40/bin/bin/../../lib/gcc/pic32mx/4.8.3/../../../../pic32mx/lib\libpic32.a(vector8.o)
 .reginfo       0x00000000       0x18 c:/program files (x86)/microchip/xc32/v1.40/bin/bin/../../lib/gcc/pic32mx/4.8.3/../../../../pic32mx/lib\libpic32.a(vector8.o)
 .text          0x00000000        0x0 c:/program files (x86)/microchip/xc32/v1.40/bin/bin/../../lib/gcc/pic32mx/4.8.3/../../../../pic32mx/lib\libpic32.a(vector9.o)
 .data          0x00000000        0x0 c:/program files (x86)/microchip/xc32/v1.40/bin/bin/../../lib/gcc/pic32mx/4.8.3/../../../../pic32mx/lib\libpic32.a(vector9.o)
 .bss           0x00000000        0x0 c:/program files (x86)/microchip/xc32/v1.40/bin/bin/../../lib/gcc/pic32mx/4.8.3/../../../../pic32mx/lib\libpic32.a(vector9.o)
 .reginfo       0x00000000       0x18 c:/program files (x86)/microchip/xc32/v1.40/bin/bin/../../lib/gcc/pic32mx/4.8.3/../../../../pic32mx/lib\libpic32.a(vector9.o)
 .text          0x00000000        0x0 c:/program files (x86)/microchip/xc32/v1.40/bin/bin/../../lib/gcc/pic32mx/4.8.3/../../../../pic32mx/lib\libpic32.a(vector10.o)
 .data          0x00000000        0x0 c:/program files (x86)/microchip/xc32/v1.40/bin/bin/../../lib/gcc/pic32mx/4.8.3/../../../../pic32mx/lib\libpic32.a(vector10.o)
 .bss           0x00000000        0x0 c:/program files (x86)/microchip/xc32/v1.40/bin/bin/../../lib/gcc/pic32mx/4.8.3/../../../../pic32mx/lib\libpic32.a(vector10.o)
 .reginfo       0x00000000       0x18 c:/program files (x86)/microchip/xc32/v1.40/bin/bin/../../lib/gcc/pic32mx/4.8.3/../../../../pic32mx/lib\libpic32.a(vector10.o)
 .text          0x00000000        0x0 c:/program files (x86)/microchip/xc32/v1.40/bin/bin/../../lib/gcc/pic32mx/4.8.3/../../../../pic32mx/lib\libpic32.a(vector11.o)
 .data          0x00000000        0x0 c:/program files (x86)/microchip/xc32/v1.40/bin/bin/../../lib/gcc/pic32mx/4.8.3/../../../../pic32mx/lib\libpic32.a(vector11.o)
 .bss           0x00000000        0x0 c:/program files (x86)/microchip/xc32/v1.40/bin/bin/../../lib/gcc/pic32mx/4.8.3/../../../../pic32mx/lib\libpic32.a(vector11.o)
 .reginfo       0x00000000       0x18 c:/program files (x86)/microchip/xc32/v1.40/bin/bin/../../lib/gcc/pic32mx/4.8.3/../../../../pic32mx/lib\libpic32.a(vector11.o)
 .text          0x00000000        0x0 c:/program files (x86)/microchip/xc32/v1.40/bin/bin/../../lib/gcc/pic32mx/4.8.3/../../../../pic32mx/lib\libpic32.a(vector12.o)
 .data          0x00000000        0x0 c:/program files (x86)/microchip/xc32/v1.40/bin/bin/../../lib/gcc/pic32mx/4.8.3/../../../../pic32mx/lib\libpic32.a(vector12.o)
 .bss           0x00000000        0x0 c:/program files (x86)/microchip/xc32/v1.40/bin/bin/../../lib/gcc/pic32mx/4.8.3/../../../../pic32mx/lib\libpic32.a(vector12.o)
 .reginfo       0x00000000       0x18 c:/program files (x86)/microchip/xc32/v1.40/bin/bin/../../lib/gcc/pic32mx/4.8.3/../../../../pic32mx/lib\libpic32.a(vector12.o)
 .text          0x00000000        0x0 c:/program files (x86)/microchip/xc32/v1.40/bin/bin/../../lib/gcc/pic32mx/4.8.3/../../../../pic32mx/lib\libpic32.a(vector13.o)
 .data          0x00000000        0x0 c:/program files (x86)/microchip/xc32/v1.40/bin/bin/../../lib/gcc/pic32mx/4.8.3/../../../../pic32mx/lib\libpic32.a(vector13.o)
 .bss           0x00000000        0x0 c:/program files (x86)/microchip/xc32/v1.40/bin/bin/../../lib/gcc/pic32mx/4.8.3/../../../../pic32mx/lib\libpic32.a(vector13.o)
 .reginfo       0x00000000       0x18 c:/program files (x86)/microchip/xc32/v1.40/bin/bin/../../lib/gcc/pic32mx/4.8.3/../../../../pic32mx/lib\libpic32.a(vector13.o)
 .text          0x00000000        0x0 c:/program files (x86)/microchip/xc32/v1.40/bin/bin/../../lib/gcc/pic32mx/4.8.3/../../../../pic32mx/lib\libpic32.a(vector14.o)
 .data          0x00000000        0x0 c:/program files (x86)/microchip/xc32/v1.40/bin/bin/../../lib/gcc/pic32mx/4.8.3/../../../../pic32mx/lib\libpic32.a(vector14.o)
 .bss           0x00000000        0x0 c:/program files (x86)/microchip/xc32/v1.40/bin/bin/../../lib/gcc/pic32mx/4.8.3/../../../../pic32mx/lib\libpic32.a(vector14.o)
 .reginfo       0x00000000       0x18 c:/program files (x86)/microchip/xc32/v1.40/bin/bin/../../lib/gcc/pic32mx/4.8.3/../../../../pic32mx/lib\libpic32.a(vector14.o)
 .text          0x00000000        0x0 c:/program files (x86)/microchip/xc32/v1.40/bin/bin/../../lib/gcc/pic32mx/4.8.3/../../../../pic32mx/lib\libpic32.a(vector15.o)
 .data          0x00000000        0x0 c:/program files (x86)/microchip/xc32/v1.40/bin/bin/../../lib/gcc/pic32mx/4.8.3/../../../../pic32mx/lib\libpic32.a(vector15.o)
 .bss           0x00000000        0x0 c:/program files (x86)/microchip/xc32/v1.40/bin/bin/../../lib/gcc/pic32mx/4.8.3/../../../../pic32mx/lib\libpic32.a(vector15.o)
 .reginfo       0x00000000       0x18 c:/program files (x86)/microchip/xc32/v1.40/bin/bin/../../lib/gcc/pic32mx/4.8.3/../../../../pic32mx/lib\libpic32.a(vector15.o)
 .text          0x00000000        0x0 c:/program files (x86)/microchip/xc32/v1.40/bin/bin/../../lib/gcc/pic32mx/4.8.3/../../../../pic32mx/lib\libpic32.a(vector16.o)
 .data          0x00000000        0x0 c:/program files (x86)/microchip/xc32/v1.40/bin/bin/../../lib/gcc/pic32mx/4.8.3/../../../../pic32mx/lib\libpic32.a(vector16.o)
 .bss           0x00000000        0x0 c:/program files (x86)/microchip/xc32/v1.40/bin/bin/../../lib/gcc/pic32mx/4.8.3/../../../../pic32mx/lib\libpic32.a(vector16.o)
 .reginfo       0x00000000       0x18 c:/program files (x86)/microchip/xc32/v1.40/bin/bin/../../lib/gcc/pic32mx/4.8.3/../../../../pic32mx/lib\libpic32.a(vector16.o)
 .text          0x00000000        0x0 c:/program files (x86)/microchip/xc32/v1.40/bin/bin/../../lib/gcc/pic32mx/4.8.3/../../../../pic32mx/lib\libpic32.a(vector17.o)
 .data          0x00000000        0x0 c:/program files (x86)/microchip/xc32/v1.40/bin/bin/../../lib/gcc/pic32mx/4.8.3/../../../../pic32mx/lib\libpic32.a(vector17.o)
 .bss           0x00000000        0x0 c:/program files (x86)/microchip/xc32/v1.40/bin/bin/../../lib/gcc/pic32mx/4.8.3/../../../../pic32mx/lib\libpic32.a(vector17.o)
 .reginfo       0x00000000       0x18 c:/program files (x86)/microchip/xc32/v1.40/bin/bin/../../lib/gcc/pic32mx/4.8.3/../../../../pic32mx/lib\libpic32.a(vector17.o)
 .text          0x00000000        0x0 c:/program files (x86)/microchip/xc32/v1.40/bin/bin/../../lib/gcc/pic32mx/4.8.3/../../../../pic32mx/lib\libpic32.a(vector18.o)
 .data          0x00000000        0x0 c:/program files (x86)/microchip/xc32/v1.40/bin/bin/../../lib/gcc/pic32mx/4.8.3/../../../../pic32mx/lib\libpic32.a(vector18.o)
 .bss           0x00000000        0x0 c:/program files (x86)/microchip/xc32/v1.40/bin/bin/../../lib/gcc/pic32mx/4.8.3/../../../../pic32mx/lib\libpic32.a(vector18.o)
 .reginfo       0x00000000       0x18 c:/program files (x86)/microchip/xc32/v1.40/bin/bin/../../lib/gcc/pic32mx/4.8.3/../../../../pic32mx/lib\libpic32.a(vector18.o)
 .text          0x00000000        0x0 c:/program files (x86)/microchip/xc32/v1.40/bin/bin/../../lib/gcc/pic32mx/4.8.3/../../../../pic32mx/lib\libpic32.a(vector19.o)
 .data          0x00000000        0x0 c:/program files (x86)/microchip/xc32/v1.40/bin/bin/../../lib/gcc/pic32mx/4.8.3/../../../../pic32mx/lib\libpic32.a(vector19.o)
 .bss           0x00000000        0x0 c:/program files (x86)/microchip/xc32/v1.40/bin/bin/../../lib/gcc/pic32mx/4.8.3/../../../../pic32mx/lib\libpic32.a(vector19.o)
 .reginfo       0x00000000       0x18 c:/program files (x86)/microchip/xc32/v1.40/bin/bin/../../lib/gcc/pic32mx/4.8.3/../../../../pic32mx/lib\libpic32.a(vector19.o)
 .text          0x00000000        0x0 c:/program files (x86)/microchip/xc32/v1.40/bin/bin/../../lib/gcc/pic32mx/4.8.3/../../../../pic32mx/lib\libpic32.a(vector20.o)
 .data          0x00000000        0x0 c:/program files (x86)/microchip/xc32/v1.40/bin/bin/../../lib/gcc/pic32mx/4.8.3/../../../../pic32mx/lib\libpic32.a(vector20.o)
 .bss           0x00000000        0x0 c:/program files (x86)/microchip/xc32/v1.40/bin/bin/../../lib/gcc/pic32mx/4.8.3/../../../../pic32mx/lib\libpic32.a(vector20.o)
 .reginfo       0x00000000       0x18 c:/program files (x86)/microchip/xc32/v1.40/bin/bin/../../lib/gcc/pic32mx/4.8.3/../../../../pic32mx/lib\libpic32.a(vector20.o)
 .text          0x00000000        0x0 c:/program files (x86)/microchip/xc32/v1.40/bin/bin/../../lib/gcc/pic32mx/4.8.3/../../../../pic32mx/lib\libpic32.a(vector21.o)
 .data          0x00000000        0x0 c:/program files (x86)/microchip/xc32/v1.40/bin/bin/../../lib/gcc/pic32mx/4.8.3/../../../../pic32mx/lib\libpic32.a(vector21.o)
 .bss           0x00000000        0x0 c:/program files (x86)/microchip/xc32/v1.40/bin/bin/../../lib/gcc/pic32mx/4.8.3/../../../../pic32mx/lib\libpic32.a(vector21.o)
 .reginfo       0x00000000       0x18 c:/program files (x86)/microchip/xc32/v1.40/bin/bin/../../lib/gcc/pic32mx/4.8.3/../../../../pic32mx/lib\libpic32.a(vector21.o)
 .text          0x00000000        0x0 c:/program files (x86)/microchip/xc32/v1.40/bin/bin/../../lib/gcc/pic32mx/4.8.3/../../../../pic32mx/lib\libpic32.a(vector22.o)
 .data          0x00000000        0x0 c:/program files (x86)/microchip/xc32/v1.40/bin/bin/../../lib/gcc/pic32mx/4.8.3/../../../../pic32mx/lib\libpic32.a(vector22.o)
 .bss           0x00000000        0x0 c:/program files (x86)/microchip/xc32/v1.40/bin/bin/../../lib/gcc/pic32mx/4.8.3/../../../../pic32mx/lib\libpic32.a(vector22.o)
 .reginfo       0x00000000       0x18 c:/program files (x86)/microchip/xc32/v1.40/bin/bin/../../lib/gcc/pic32mx/4.8.3/../../../../pic32mx/lib\libpic32.a(vector22.o)
 .text          0x00000000        0x0 c:/program files (x86)/microchip/xc32/v1.40/bin/bin/../../lib/gcc/pic32mx/4.8.3/../../../../pic32mx/lib\libpic32.a(vector23.o)
 .data          0x00000000        0x0 c:/program files (x86)/microchip/xc32/v1.40/bin/bin/../../lib/gcc/pic32mx/4.8.3/../../../../pic32mx/lib\libpic32.a(vector23.o)
 .bss           0x00000000        0x0 c:/program files (x86)/microchip/xc32/v1.40/bin/bin/../../lib/gcc/pic32mx/4.8.3/../../../../pic32mx/lib\libpic32.a(vector23.o)
 .reginfo       0x00000000       0x18 c:/program files (x86)/microchip/xc32/v1.40/bin/bin/../../lib/gcc/pic32mx/4.8.3/../../../../pic32mx/lib\libpic32.a(vector23.o)
 .text          0x00000000        0x0 c:/program files (x86)/microchip/xc32/v1.40/bin/bin/../../lib/gcc/pic32mx/4.8.3/../../../../pic32mx/lib\libpic32.a(vector25.o)
 .data          0x00000000        0x0 c:/program files (x86)/microchip/xc32/v1.40/bin/bin/../../lib/gcc/pic32mx/4.8.3/../../../../pic32mx/lib\libpic32.a(vector25.o)
 .bss           0x00000000        0x0 c:/program files (x86)/microchip/xc32/v1.40/bin/bin/../../lib/gcc/pic32mx/4.8.3/../../../../pic32mx/lib\libpic32.a(vector25.o)
 .reginfo       0x00000000       0x18 c:/program files (x86)/microchip/xc32/v1.40/bin/bin/../../lib/gcc/pic32mx/4.8.3/../../../../pic32mx/lib\libpic32.a(vector25.o)
 .text          0x00000000        0x0 c:/program files (x86)/microchip/xc32/v1.40/bin/bin/../../lib/gcc/pic32mx/4.8.3/../../../../pic32mx/lib\libpic32.a(vector26.o)
 .data          0x00000000        0x0 c:/program files (x86)/microchip/xc32/v1.40/bin/bin/../../lib/gcc/pic32mx/4.8.3/../../../../pic32mx/lib\libpic32.a(vector26.o)
 .bss           0x00000000        0x0 c:/program files (x86)/microchip/xc32/v1.40/bin/bin/../../lib/gcc/pic32mx/4.8.3/../../../../pic32mx/lib\libpic32.a(vector26.o)
 .reginfo       0x00000000       0x18 c:/program files (x86)/microchip/xc32/v1.40/bin/bin/../../lib/gcc/pic32mx/4.8.3/../../../../pic32mx/lib\libpic32.a(vector26.o)
 .text          0x00000000        0x0 c:/program files (x86)/microchip/xc32/v1.40/bin/bin/../../lib/gcc/pic32mx/4.8.3/../../../../pic32mx/lib\libpic32.a(vector28.o)
 .data          0x00000000        0x0 c:/program files (x86)/microchip/xc32/v1.40/bin/bin/../../lib/gcc/pic32mx/4.8.3/../../../../pic32mx/lib\libpic32.a(vector28.o)
 .bss           0x00000000        0x0 c:/program files (x86)/microchip/xc32/v1.40/bin/bin/../../lib/gcc/pic32mx/4.8.3/../../../../pic32mx/lib\libpic32.a(vector28.o)
 .reginfo       0x00000000       0x18 c:/program files (x86)/microchip/xc32/v1.40/bin/bin/../../lib/gcc/pic32mx/4.8.3/../../../../pic32mx/lib\libpic32.a(vector28.o)
 .text          0x00000000        0x0 c:/program files (x86)/microchip/xc32/v1.40/bin/bin/../../lib/gcc/pic32mx/4.8.3/../../../../pic32mx/lib\libpic32.a(vector29.o)
 .data          0x00000000        0x0 c:/program files (x86)/microchip/xc32/v1.40/bin/bin/../../lib/gcc/pic32mx/4.8.3/../../../../pic32mx/lib\libpic32.a(vector29.o)
 .bss           0x00000000        0x0 c:/program files (x86)/microchip/xc32/v1.40/bin/bin/../../lib/gcc/pic32mx/4.8.3/../../../../pic32mx/lib\libpic32.a(vector29.o)
 .reginfo       0x00000000       0x18 c:/program files (x86)/microchip/xc32/v1.40/bin/bin/../../lib/gcc/pic32mx/4.8.3/../../../../pic32mx/lib\libpic32.a(vector29.o)
 .text          0x00000000        0x0 c:/program files (x86)/microchip/xc32/v1.40/bin/bin/../../lib/gcc/pic32mx/4.8.3/../../../../pic32mx/lib\libpic32.a(vector30.o)
 .data          0x00000000        0x0 c:/program files (x86)/microchip/xc32/v1.40/bin/bin/../../lib/gcc/pic32mx/4.8.3/../../../../pic32mx/lib\libpic32.a(vector30.o)
 .bss           0x00000000        0x0 c:/program files (x86)/microchip/xc32/v1.40/bin/bin/../../lib/gcc/pic32mx/4.8.3/../../../../pic32mx/lib\libpic32.a(vector30.o)
 .reginfo       0x00000000       0x18 c:/program files (x86)/microchip/xc32/v1.40/bin/bin/../../lib/gcc/pic32mx/4.8.3/../../../../pic32mx/lib\libpic32.a(vector30.o)
 .text          0x00000000        0x0 c:/program files (x86)/microchip/xc32/v1.40/bin/bin/../../lib/gcc/pic32mx/4.8.3/../../../../pic32mx/lib\libpic32.a(vector31.o)
 .data          0x00000000        0x0 c:/program files (x86)/microchip/xc32/v1.40/bin/bin/../../lib/gcc/pic32mx/4.8.3/../../../../pic32mx/lib\libpic32.a(vector31.o)
 .bss           0x00000000        0x0 c:/program files (x86)/microchip/xc32/v1.40/bin/bin/../../lib/gcc/pic32mx/4.8.3/../../../../pic32mx/lib\libpic32.a(vector31.o)
 .reginfo       0x00000000       0x18 c:/program files (x86)/microchip/xc32/v1.40/bin/bin/../../lib/gcc/pic32mx/4.8.3/../../../../pic32mx/lib\libpic32.a(vector31.o)
 .text          0x00000000        0x0 c:/program files (x86)/microchip/xc32/v1.40/bin/bin/../../lib/gcc/pic32mx/4.8.3/../../../../pic32mx/lib\libpic32.a(vector32.o)
 .data          0x00000000        0x0 c:/program files (x86)/microchip/xc32/v1.40/bin/bin/../../lib/gcc/pic32mx/4.8.3/../../../../pic32mx/lib\libpic32.a(vector32.o)
 .bss           0x00000000        0x0 c:/program files (x86)/microchip/xc32/v1.40/bin/bin/../../lib/gcc/pic32mx/4.8.3/../../../../pic32mx/lib\libpic32.a(vector32.o)
 .reginfo       0x00000000       0x18 c:/program files (x86)/microchip/xc32/v1.40/bin/bin/../../lib/gcc/pic32mx/4.8.3/../../../../pic32mx/lib\libpic32.a(vector32.o)
 .text          0x00000000        0x0 c:/program files (x86)/microchip/xc32/v1.40/bin/bin/../../lib/gcc/pic32mx/4.8.3/../../../../pic32mx/lib\libpic32.a(vector33.o)
 .data          0x00000000        0x0 c:/program files (x86)/microchip/xc32/v1.40/bin/bin/../../lib/gcc/pic32mx/4.8.3/../../../../pic32mx/lib\libpic32.a(vector33.o)
 .bss           0x00000000        0x0 c:/program files (x86)/microchip/xc32/v1.40/bin/bin/../../lib/gcc/pic32mx/4.8.3/../../../../pic32mx/lib\libpic32.a(vector33.o)
 .reginfo       0x00000000       0x18 c:/program files (x86)/microchip/xc32/v1.40/bin/bin/../../lib/gcc/pic32mx/4.8.3/../../../../pic32mx/lib\libpic32.a(vector33.o)
 .text          0x00000000        0x0 c:/program files (x86)/microchip/xc32/v1.40/bin/bin/../../lib/gcc/pic32mx/4.8.3/../../../../pic32mx/lib\libpic32.a(vector34.o)
 .data          0x00000000        0x0 c:/program files (x86)/microchip/xc32/v1.40/bin/bin/../../lib/gcc/pic32mx/4.8.3/../../../../pic32mx/lib\libpic32.a(vector34.o)
 .bss           0x00000000        0x0 c:/program files (x86)/microchip/xc32/v1.40/bin/bin/../../lib/gcc/pic32mx/4.8.3/../../../../pic32mx/lib\libpic32.a(vector34.o)
 .reginfo       0x00000000       0x18 c:/program files (x86)/microchip/xc32/v1.40/bin/bin/../../lib/gcc/pic32mx/4.8.3/../../../../pic32mx/lib\libpic32.a(vector34.o)
 .text          0x00000000        0x0 c:/program files (x86)/microchip/xc32/v1.40/bin/bin/../../lib/gcc/pic32mx/4.8.3/../../../../pic32mx/lib\libpic32.a(vector35.o)
 .data          0x00000000        0x0 c:/program files (x86)/microchip/xc32/v1.40/bin/bin/../../lib/gcc/pic32mx/4.8.3/../../../../pic32mx/lib\libpic32.a(vector35.o)
 .bss           0x00000000        0x0 c:/program files (x86)/microchip/xc32/v1.40/bin/bin/../../lib/gcc/pic32mx/4.8.3/../../../../pic32mx/lib\libpic32.a(vector35.o)
 .reginfo       0x00000000       0x18 c:/program files (x86)/microchip/xc32/v1.40/bin/bin/../../lib/gcc/pic32mx/4.8.3/../../../../pic32mx/lib\libpic32.a(vector35.o)
 .text          0x00000000        0x0 c:/program files (x86)/microchip/xc32/v1.40/bin/bin/../../lib/gcc/pic32mx/4.8.3/../../../../pic32mx/lib\libpic32.a(vector36.o)
 .data          0x00000000        0x0 c:/program files (x86)/microchip/xc32/v1.40/bin/bin/../../lib/gcc/pic32mx/4.8.3/../../../../pic32mx/lib\libpic32.a(vector36.o)
 .bss           0x00000000        0x0 c:/program files (x86)/microchip/xc32/v1.40/bin/bin/../../lib/gcc/pic32mx/4.8.3/../../../../pic32mx/lib\libpic32.a(vector36.o)
 .reginfo       0x00000000       0x18 c:/program files (x86)/microchip/xc32/v1.40/bin/bin/../../lib/gcc/pic32mx/4.8.3/../../../../pic32mx/lib\libpic32.a(vector36.o)
 .text          0x00000000        0x0 c:/program files (x86)/microchip/xc32/v1.40/bin/bin/../../lib/gcc/pic32mx/4.8.3/../../../../pic32mx/lib\libpic32.a(vector37.o)
 .data          0x00000000        0x0 c:/program files (x86)/microchip/xc32/v1.40/bin/bin/../../lib/gcc/pic32mx/4.8.3/../../../../pic32mx/lib\libpic32.a(vector37.o)
 .bss           0x00000000        0x0 c:/program files (x86)/microchip/xc32/v1.40/bin/bin/../../lib/gcc/pic32mx/4.8.3/../../../../pic32mx/lib\libpic32.a(vector37.o)
 .reginfo       0x00000000       0x18 c:/program files (x86)/microchip/xc32/v1.40/bin/bin/../../lib/gcc/pic32mx/4.8.3/../../../../pic32mx/lib\libpic32.a(vector37.o)
 .text          0x00000000        0x0 c:/program files (x86)/microchip/xc32/v1.40/bin/bin/../../lib/gcc/pic32mx/4.8.3/../../../../pic32mx/lib\libpic32.a(vector38.o)
 .data          0x00000000        0x0 c:/program files (x86)/microchip/xc32/v1.40/bin/bin/../../lib/gcc/pic32mx/4.8.3/../../../../pic32mx/lib\libpic32.a(vector38.o)
 .bss           0x00000000        0x0 c:/program files (x86)/microchip/xc32/v1.40/bin/bin/../../lib/gcc/pic32mx/4.8.3/../../../../pic32mx/lib\libpic32.a(vector38.o)
 .reginfo       0x00000000       0x18 c:/program files (x86)/microchip/xc32/v1.40/bin/bin/../../lib/gcc/pic32mx/4.8.3/../../../../pic32mx/lib\libpic32.a(vector38.o)
 .text          0x00000000        0x0 c:/program files (x86)/microchip/xc32/v1.40/bin/bin/../../lib/gcc/pic32mx/4.8.3/../../../../pic32mx/lib\libpic32.a(vector39.o)
 .data          0x00000000        0x0 c:/program files (x86)/microchip/xc32/v1.40/bin/bin/../../lib/gcc/pic32mx/4.8.3/../../../../pic32mx/lib\libpic32.a(vector39.o)
 .bss           0x00000000        0x0 c:/program files (x86)/microchip/xc32/v1.40/bin/bin/../../lib/gcc/pic32mx/4.8.3/../../../../pic32mx/lib\libpic32.a(vector39.o)
 .reginfo       0x00000000       0x18 c:/program files (x86)/microchip/xc32/v1.40/bin/bin/../../lib/gcc/pic32mx/4.8.3/../../../../pic32mx/lib\libpic32.a(vector39.o)
 .text          0x00000000        0x0 c:/program files (x86)/microchip/xc32/v1.40/bin/bin/../../lib/gcc/pic32mx/4.8.3/../../../../pic32mx/lib\libpic32.a(vector40.o)
 .data          0x00000000        0x0 c:/program files (x86)/microchip/xc32/v1.40/bin/bin/../../lib/gcc/pic32mx/4.8.3/../../../../pic32mx/lib\libpic32.a(vector40.o)
 .bss           0x00000000        0x0 c:/program files (x86)/microchip/xc32/v1.40/bin/bin/../../lib/gcc/pic32mx/4.8.3/../../../../pic32mx/lib\libpic32.a(vector40.o)
 .reginfo       0x00000000       0x18 c:/program files (x86)/microchip/xc32/v1.40/bin/bin/../../lib/gcc/pic32mx/4.8.3/../../../../pic32mx/lib\libpic32.a(vector40.o)
 .text          0x00000000        0x0 c:/program files (x86)/microchip/xc32/v1.40/bin/bin/../../lib/gcc/pic32mx/4.8.3/../../../../pic32mx/lib\libpic32.a(vector41.o)
 .data          0x00000000        0x0 c:/program files (x86)/microchip/xc32/v1.40/bin/bin/../../lib/gcc/pic32mx/4.8.3/../../../../pic32mx/lib\libpic32.a(vector41.o)
 .bss           0x00000000        0x0 c:/program files (x86)/microchip/xc32/v1.40/bin/bin/../../lib/gcc/pic32mx/4.8.3/../../../../pic32mx/lib\libpic32.a(vector41.o)
 .reginfo       0x00000000       0x18 c:/program files (x86)/microchip/xc32/v1.40/bin/bin/../../lib/gcc/pic32mx/4.8.3/../../../../pic32mx/lib\libpic32.a(vector41.o)
 .text          0x00000000        0x0 c:/program files (x86)/microchip/xc32/v1.40/bin/bin/../../lib/gcc/pic32mx/4.8.3/../../../../pic32mx/lib\libpic32.a(vector42.o)
 .data          0x00000000        0x0 c:/program files (x86)/microchip/xc32/v1.40/bin/bin/../../lib/gcc/pic32mx/4.8.3/../../../../pic32mx/lib\libpic32.a(vector42.o)
 .bss           0x00000000        0x0 c:/program files (x86)/microchip/xc32/v1.40/bin/bin/../../lib/gcc/pic32mx/4.8.3/../../../../pic32mx/lib\libpic32.a(vector42.o)
 .reginfo       0x00000000       0x18 c:/program files (x86)/microchip/xc32/v1.40/bin/bin/../../lib/gcc/pic32mx/4.8.3/../../../../pic32mx/lib\libpic32.a(vector42.o)
 .text          0x00000000        0x0 c:/program files (x86)/microchip/xc32/v1.40/bin/bin/../../lib/gcc/pic32mx/4.8.3/../../../../pic32mx/lib\libpic32.a(vector43.o)
 .data          0x00000000        0x0 c:/program files (x86)/microchip/xc32/v1.40/bin/bin/../../lib/gcc/pic32mx/4.8.3/../../../../pic32mx/lib\libpic32.a(vector43.o)
 .bss           0x00000000        0x0 c:/program files (x86)/microchip/xc32/v1.40/bin/bin/../../lib/gcc/pic32mx/4.8.3/../../../../pic32mx/lib\libpic32.a(vector43.o)
 .reginfo       0x00000000       0x18 c:/program files (x86)/microchip/xc32/v1.40/bin/bin/../../lib/gcc/pic32mx/4.8.3/../../../../pic32mx/lib\libpic32.a(vector43.o)
 .text          0x00000000        0x0 c:/program files (x86)/microchip/xc32/v1.40/bin/bin/../../lib/gcc/pic32mx/4.8.3/../../../../pic32mx/lib\libpic32.a(vector44.o)
 .data          0x00000000        0x0 c:/program files (x86)/microchip/xc32/v1.40/bin/bin/../../lib/gcc/pic32mx/4.8.3/../../../../pic32mx/lib\libpic32.a(vector44.o)
 .bss           0x00000000        0x0 c:/program files (x86)/microchip/xc32/v1.40/bin/bin/../../lib/gcc/pic32mx/4.8.3/../../../../pic32mx/lib\libpic32.a(vector44.o)
 .reginfo       0x00000000       0x18 c:/program files (x86)/microchip/xc32/v1.40/bin/bin/../../lib/gcc/pic32mx/4.8.3/../../../../pic32mx/lib\libpic32.a(vector44.o)
 .text          0x00000000        0x0 c:/program files (x86)/microchip/xc32/v1.40/bin/bin/../../lib/gcc/pic32mx/4.8.3/../../../../pic32mx/lib\libpic32.a(vector45.o)
 .data          0x00000000        0x0 c:/program files (x86)/microchip/xc32/v1.40/bin/bin/../../lib/gcc/pic32mx/4.8.3/../../../../pic32mx/lib\libpic32.a(vector45.o)
 .bss           0x00000000        0x0 c:/program files (x86)/microchip/xc32/v1.40/bin/bin/../../lib/gcc/pic32mx/4.8.3/../../../../pic32mx/lib\libpic32.a(vector45.o)
 .reginfo       0x00000000       0x18 c:/program files (x86)/microchip/xc32/v1.40/bin/bin/../../lib/gcc/pic32mx/4.8.3/../../../../pic32mx/lib\libpic32.a(vector45.o)
 .text          0x00000000        0x0 c:/program files (x86)/microchip/xc32/v1.40/bin/bin/../../lib/gcc/pic32mx/4.8.3/../../../../pic32mx/lib\libpic32.a(vector46.o)
 .data          0x00000000        0x0 c:/program files (x86)/microchip/xc32/v1.40/bin/bin/../../lib/gcc/pic32mx/4.8.3/../../../../pic32mx/lib\libpic32.a(vector46.o)
 .bss           0x00000000        0x0 c:/program files (x86)/microchip/xc32/v1.40/bin/bin/../../lib/gcc/pic32mx/4.8.3/../../../../pic32mx/lib\libpic32.a(vector46.o)
 .reginfo       0x00000000       0x18 c:/program files (x86)/microchip/xc32/v1.40/bin/bin/../../lib/gcc/pic32mx/4.8.3/../../../../pic32mx/lib\libpic32.a(vector46.o)
 .text          0x00000000        0x0 c:/program files (x86)/microchip/xc32/v1.40/bin/bin/../../lib/gcc/pic32mx/4.8.3/../../../../pic32mx/lib\libpic32.a(vector47.o)
 .data          0x00000000        0x0 c:/program files (x86)/microchip/xc32/v1.40/bin/bin/../../lib/gcc/pic32mx/4.8.3/../../../../pic32mx/lib\libpic32.a(vector47.o)
 .bss           0x00000000        0x0 c:/program files (x86)/microchip/xc32/v1.40/bin/bin/../../lib/gcc/pic32mx/4.8.3/../../../../pic32mx/lib\libpic32.a(vector47.o)
 .reginfo       0x00000000       0x18 c:/program files (x86)/microchip/xc32/v1.40/bin/bin/../../lib/gcc/pic32mx/4.8.3/../../../../pic32mx/lib\libpic32.a(vector47.o)
 .text          0x00000000        0x0 c:/program files (x86)/microchip/xc32/v1.40/bin/bin/../../lib/gcc/pic32mx/4.8.3/../../../../pic32mx/lib\libpic32.a(vector48.o)
 .data          0x00000000        0x0 c:/program files (x86)/microchip/xc32/v1.40/bin/bin/../../lib/gcc/pic32mx/4.8.3/../../../../pic32mx/lib\libpic32.a(vector48.o)
 .bss           0x00000000        0x0 c:/program files (x86)/microchip/xc32/v1.40/bin/bin/../../lib/gcc/pic32mx/4.8.3/../../../../pic32mx/lib\libpic32.a(vector48.o)
 .reginfo       0x00000000       0x18 c:/program files (x86)/microchip/xc32/v1.40/bin/bin/../../lib/gcc/pic32mx/4.8.3/../../../../pic32mx/lib\libpic32.a(vector48.o)
 .text          0x00000000        0x0 c:/program files (x86)/microchip/xc32/v1.40/bin/bin/../../lib/gcc/pic32mx/4.8.3/../../../../pic32mx/lib\libpic32.a(vector49.o)
 .data          0x00000000        0x0 c:/program files (x86)/microchip/xc32/v1.40/bin/bin/../../lib/gcc/pic32mx/4.8.3/../../../../pic32mx/lib\libpic32.a(vector49.o)
 .bss           0x00000000        0x0 c:/program files (x86)/microchip/xc32/v1.40/bin/bin/../../lib/gcc/pic32mx/4.8.3/../../../../pic32mx/lib\libpic32.a(vector49.o)
 .reginfo       0x00000000       0x18 c:/program files (x86)/microchip/xc32/v1.40/bin/bin/../../lib/gcc/pic32mx/4.8.3/../../../../pic32mx/lib\libpic32.a(vector49.o)
 .text          0x00000000        0x0 c:/program files (x86)/microchip/xc32/v1.40/bin/bin/../../lib/gcc/pic32mx/4.8.3/../../../../pic32mx/lib\libpic32.a(vector50.o)
 .data          0x00000000        0x0 c:/program files (x86)/microchip/xc32/v1.40/bin/bin/../../lib/gcc/pic32mx/4.8.3/../../../../pic32mx/lib\libpic32.a(vector50.o)
 .bss           0x00000000        0x0 c:/program files (x86)/microchip/xc32/v1.40/bin/bin/../../lib/gcc/pic32mx/4.8.3/../../../../pic32mx/lib\libpic32.a(vector50.o)
 .reginfo       0x00000000       0x18 c:/program files (x86)/microchip/xc32/v1.40/bin/bin/../../lib/gcc/pic32mx/4.8.3/../../../../pic32mx/lib\libpic32.a(vector50.o)
 .text          0x00000000        0x0 c:/program files (x86)/microchip/xc32/v1.40/bin/bin/../../lib/gcc/pic32mx/4.8.3/../../../../pic32mx/lib\libpic32.a(vector51.o)
 .data          0x00000000        0x0 c:/program files (x86)/microchip/xc32/v1.40/bin/bin/../../lib/gcc/pic32mx/4.8.3/../../../../pic32mx/lib\libpic32.a(vector51.o)
 .bss           0x00000000        0x0 c:/program files (x86)/microchip/xc32/v1.40/bin/bin/../../lib/gcc/pic32mx/4.8.3/../../../../pic32mx/lib\libpic32.a(vector51.o)
 .reginfo       0x00000000       0x18 c:/program files (x86)/microchip/xc32/v1.40/bin/bin/../../lib/gcc/pic32mx/4.8.3/../../../../pic32mx/lib\libpic32.a(vector51.o)
 .data          0x00000000        0x0 c:/program files (x86)/microchip/xc32/v1.40/bin/bin/../../lib/gcc/pic32mx/4.8.3/../../../../pic32mx/lib\libpic32.a(memcmp.o)
 .bss           0x00000000        0x0 c:/program files (x86)/microchip/xc32/v1.40/bin/bin/../../lib/gcc/pic32mx/4.8.3/../../../../pic32mx/lib\libpic32.a(memcmp.o)
 .reginfo       0x00000000       0x18 c:/program files (x86)/microchip/xc32/v1.40/bin/bin/../../lib/gcc/pic32mx/4.8.3/../../../../pic32mx/lib\libpic32.a(memcmp.o)
 .text          0x00000000        0x0 c:/program files (x86)/microchip/xc32/v1.40/bin/bin/../../lib/gcc/pic32mx/4.8.3/../../../../pic32mx/lib\libpic32.a(defaultinterrupt.o)
 .data          0x00000000        0x0 c:/program files (x86)/microchip/xc32/v1.40/bin/bin/../../lib/gcc/pic32mx/4.8.3/../../../../pic32mx/lib\libpic32.a(defaultinterrupt.o)
 .bss           0x00000000        0x0 c:/program files (x86)/microchip/xc32/v1.40/bin/bin/../../lib/gcc/pic32mx/4.8.3/../../../../pic32mx/lib\libpic32.a(defaultinterrupt.o)
 .reginfo       0x00000000       0x18 c:/program files (x86)/microchip/xc32/v1.40/bin/bin/../../lib/gcc/pic32mx/4.8.3/../../../../pic32mx/lib\libpic32.a(defaultinterrupt.o)
 .text          0x00000000        0x0 c:/program files (x86)/microchip/xc32/v1.40/bin/bin/../../lib/gcc/pic32mx/4.8.3/../../../../pic32mx/lib\libm.a(fp32div.o)
 .data          0x00000000        0x0 c:/program files (x86)/microchip/xc32/v1.40/bin/bin/../../lib/gcc/pic32mx/4.8.3/../../../../pic32mx/lib\libm.a(fp32div.o)
 .bss           0x00000000        0x0 c:/program files (x86)/microchip/xc32/v1.40/bin/bin/../../lib/gcc/pic32mx/4.8.3/../../../../pic32mx/lib\libm.a(fp32div.o)
 .reginfo       0x00000000       0x18 c:/program files (x86)/microchip/xc32/v1.40/bin/bin/../../lib/gcc/pic32mx/4.8.3/../../../../pic32mx/lib\libm.a(fp32div.o)
 .text          0x00000000        0x0 c:/program files (x86)/microchip/xc32/v1.40/bin/bin/../../lib/gcc/pic32mx/4.8.3/../../../../pic32mx/lib\libm.a(fp32mul.o)
 .data          0x00000000        0x0 c:/program files (x86)/microchip/xc32/v1.40/bin/bin/../../lib/gcc/pic32mx/4.8.3/../../../../pic32mx/lib\libm.a(fp32mul.o)
 .bss           0x00000000        0x0 c:/program files (x86)/microchip/xc32/v1.40/bin/bin/../../lib/gcc/pic32mx/4.8.3/../../../../pic32mx/lib\libm.a(fp32mul.o)
 .reginfo       0x00000000       0x18 c:/program files (x86)/microchip/xc32/v1.40/bin/bin/../../lib/gcc/pic32mx/4.8.3/../../../../pic32mx/lib\libm.a(fp32mul.o)
 .text          0x00000000        0x0 c:/program files (x86)/microchip/xc32/v1.40/bin/bin/../../lib/gcc/pic32mx/4.8.3/../../../../pic32mx/lib\libm.a(fp32subadd.o)
 .data          0x00000000        0x0 c:/program files (x86)/microchip/xc32/v1.40/bin/bin/../../lib/gcc/pic32mx/4.8.3/../../../../pic32mx/lib\libm.a(fp32subadd.o)
 .bss           0x00000000        0x0 c:/program files (x86)/microchip/xc32/v1.40/bin/bin/../../lib/gcc/pic32mx/4.8.3/../../../../pic32mx/lib\libm.a(fp32subadd.o)
 .reginfo       0x00000000       0x18 c:/program files (x86)/microchip/xc32/v1.40/bin/bin/../../lib/gcc/pic32mx/4.8.3/../../../../pic32mx/lib\libm.a(fp32subadd.o)
 .text          0x00000000        0x0 c:/program files (x86)/microchip/xc32/v1.40/bin/bin/../../lib/gcc/pic32mx/4.8.3/../../../../pic32mx/lib\libm.a(fpatan.o)
 .data          0x00000000        0x0 c:/program files (x86)/microchip/xc32/v1.40/bin/bin/../../lib/gcc/pic32mx/4.8.3/../../../../pic32mx/lib\libm.a(fpatan.o)
 .bss           0x00000000        0x0 c:/program files (x86)/microchip/xc32/v1.40/bin/bin/../../lib/gcc/pic32mx/4.8.3/../../../../pic32mx/lib\libm.a(fpatan.o)
 .reginfo       0x00000000       0x18 c:/program files (x86)/microchip/xc32/v1.40/bin/bin/../../lib/gcc/pic32mx/4.8.3/../../../../pic32mx/lib\libm.a(fpatan.o)
 .text          0x00000000        0x0 c:/program files (x86)/microchip/xc32/v1.40/bin/bin/../../lib/gcc/pic32mx/4.8.3/../../../../pic32mx/lib\libm.a(fpcmp.o)
 .data          0x00000000        0x0 c:/program files (x86)/microchip/xc32/v1.40/bin/bin/../../lib/gcc/pic32mx/4.8.3/../../../../pic32mx/lib\libm.a(fpcmp.o)
 .bss           0x00000000        0x0 c:/program files (x86)/microchip/xc32/v1.40/bin/bin/../../lib/gcc/pic32mx/4.8.3/../../../../pic32mx/lib\libm.a(fpcmp.o)
 .reginfo       0x00000000       0x18 c:/program files (x86)/microchip/xc32/v1.40/bin/bin/../../lib/gcc/pic32mx/4.8.3/../../../../pic32mx/lib\libm.a(fpcmp.o)
 .text          0x00000000        0x0 c:/program files (x86)/microchip/xc32/v1.40/bin/bin/../../lib/gcc/pic32mx/4.8.3/../../../../pic32mx/lib\libm.a(fpexatan.o)
 .bss           0x00000000        0x0 c:/program files (x86)/microchip/xc32/v1.40/bin/bin/../../lib/gcc/pic32mx/4.8.3/../../../../pic32mx/lib\libm.a(fpexatan.o)
 .reginfo       0x00000000       0x18 c:/program files (x86)/microchip/xc32/v1.40/bin/bin/../../lib/gcc/pic32mx/4.8.3/../../../../pic32mx/lib\libm.a(fpexatan.o)
 .text.fpexatan
                0x00000000        0x0 c:/program files (x86)/microchip/xc32/v1.40/bin/bin/../../lib/gcc/pic32mx/4.8.3/../../../../pic32mx/lib\libm.a(fpexatan.o)
 .text          0x00000000        0x0 c:/program files (x86)/microchip/xc32/v1.40/bin/bin/../../lib/gcc/pic32mx/4.8.3/../../../../pic32mx/lib\libm.a(fpexsqrt32.o)
 .data          0x00000000        0x0 c:/program files (x86)/microchip/xc32/v1.40/bin/bin/../../lib/gcc/pic32mx/4.8.3/../../../../pic32mx/lib\libm.a(fpexsqrt32.o)
 .bss           0x00000000        0x0 c:/program files (x86)/microchip/xc32/v1.40/bin/bin/../../lib/gcc/pic32mx/4.8.3/../../../../pic32mx/lib\libm.a(fpexsqrt32.o)
 .reginfo       0x00000000       0x18 c:/program files (x86)/microchip/xc32/v1.40/bin/bin/../../lib/gcc/pic32mx/4.8.3/../../../../pic32mx/lib\libm.a(fpexsqrt32.o)
 .text          0x00000000        0x0 c:/program files (x86)/microchip/xc32/v1.40/bin/bin/../../lib/gcc/pic32mx/4.8.3/../../../../pic32mx/lib\libm.a(fptoli.o)
 .data          0x00000000        0x0 c:/program files (x86)/microchip/xc32/v1.40/bin/bin/../../lib/gcc/pic32mx/4.8.3/../../../../pic32mx/lib\libm.a(fptoli.o)
 .bss           0x00000000        0x0 c:/program files (x86)/microchip/xc32/v1.40/bin/bin/../../lib/gcc/pic32mx/4.8.3/../../../../pic32mx/lib\libm.a(fptoli.o)
 .reginfo       0x00000000       0x18 c:/program files (x86)/microchip/xc32/v1.40/bin/bin/../../lib/gcc/pic32mx/4.8.3/../../../../pic32mx/lib\libm.a(fptoli.o)
 .text          0x00000000        0x0 c:/program files (x86)/microchip/xc32/v1.40/bin/bin/../../lib/gcc/pic32mx/4.8.3/../../../../pic32mx/lib\libm.a(sitofp.o)
 .data          0x00000000        0x0 c:/program files (x86)/microchip/xc32/v1.40/bin/bin/../../lib/gcc/pic32mx/4.8.3/../../../../pic32mx/lib\libm.a(sitofp.o)
 .bss           0x00000000        0x0 c:/program files (x86)/microchip/xc32/v1.40/bin/bin/../../lib/gcc/pic32mx/4.8.3/../../../../pic32mx/lib\libm.a(sitofp.o)
 .reginfo       0x00000000       0x18 c:/program files (x86)/microchip/xc32/v1.40/bin/bin/../../lib/gcc/pic32mx/4.8.3/../../../../pic32mx/lib\libm.a(sitofp.o)
 .text          0x00000000        0x0 c:/program files (x86)/microchip/xc32/v1.40/bin/bin/../../lib/gcc/pic32mx/4.8.3/../../../../pic32mx/lib\libm.a(w_sqrtf.o)
 .data          0x00000000        0x0 c:/program files (x86)/microchip/xc32/v1.40/bin/bin/../../lib/gcc/pic32mx/4.8.3/../../../../pic32mx/lib\libm.a(w_sqrtf.o)
 .bss           0x00000000        0x0 c:/program files (x86)/microchip/xc32/v1.40/bin/bin/../../lib/gcc/pic32mx/4.8.3/../../../../pic32mx/lib\libm.a(w_sqrtf.o)
 .reginfo       0x00000000       0x18 c:/program files (x86)/microchip/xc32/v1.40/bin/bin/../../lib/gcc/pic32mx/4.8.3/../../../../pic32mx/lib\libm.a(w_sqrtf.o)
 .text          0x00000000        0x0 c:/program files (x86)/microchip/xc32/v1.40/bin/bin/../../lib/gcc/pic32mx/4.8.3/../../../../pic32mx/lib\libm.a(fpsqrt32.o)
 .data          0x00000000        0x0 c:/program files (x86)/microchip/xc32/v1.40/bin/bin/../../lib/gcc/pic32mx/4.8.3/../../../../pic32mx/lib\libm.a(fpsqrt32.o)
 .bss           0x00000000        0x0 c:/program files (x86)/microchip/xc32/v1.40/bin/bin/../../lib/gcc/pic32mx/4.8.3/../../../../pic32mx/lib\libm.a(fpsqrt32.o)
 .reginfo       0x00000000       0x18 c:/program files (x86)/microchip/xc32/v1.40/bin/bin/../../lib/gcc/pic32mx/4.8.3/../../../../pic32mx/lib\libm.a(fpsqrt32.o)
 .text          0x00000000        0x0 c:/program files (x86)/microchip/xc32/v1.40/bin/bin/../../lib/gcc/pic32mx/4.8.3/../../../../pic32mx/lib\libm.a(s_lib_ver.o)
 .data          0x00000000        0x0 c:/program files (x86)/microchip/xc32/v1.40/bin/bin/../../lib/gcc/pic32mx/4.8.3/../../../../pic32mx/lib\libm.a(s_lib_ver.o)
 .bss           0x00000000        0x0 c:/program files (x86)/microchip/xc32/v1.40/bin/bin/../../lib/gcc/pic32mx/4.8.3/../../../../pic32mx/lib\libm.a(s_lib_ver.o)
 .reginfo       0x00000000       0x18 c:/program files (x86)/microchip/xc32/v1.40/bin/bin/../../lib/gcc/pic32mx/4.8.3/../../../../pic32mx/lib\libm.a(s_lib_ver.o)
 .text          0x00000000        0x0 c:/program files (x86)/microchip/xc32/v1.40/bin/bin/../../lib/gcc/pic32mx/4.8.3/../../../../pic32mx/lib\libc.a(errno.o)
 .data          0x00000000        0x0 c:/program files (x86)/microchip/xc32/v1.40/bin/bin/../../lib/gcc/pic32mx/4.8.3/../../../../pic32mx/lib\libc.a(errno.o)
 .bss           0x00000000        0x0 c:/program files (x86)/microchip/xc32/v1.40/bin/bin/../../lib/gcc/pic32mx/4.8.3/../../../../pic32mx/lib\libc.a(errno.o)
 .reginfo       0x00000000       0x18 c:/program files (x86)/microchip/xc32/v1.40/bin/bin/../../lib/gcc/pic32mx/4.8.3/../../../../pic32mx/lib\libc.a(errno.o)
 .text          0x00000000        0x0 c:/program files (x86)/microchip/xc32/v1.40/bin/bin/../../lib/gcc/pic32mx/4.8.3/../../../../pic32mx/lib\libc.a(strncpy.o)
 .data          0x00000000        0x0 c:/program files (x86)/microchip/xc32/v1.40/bin/bin/../../lib/gcc/pic32mx/4.8.3/../../../../pic32mx/lib\libc.a(strncpy.o)
 .bss           0x00000000        0x0 c:/program files (x86)/microchip/xc32/v1.40/bin/bin/../../lib/gcc/pic32mx/4.8.3/../../../../pic32mx/lib\libc.a(strncpy.o)
 .reginfo       0x00000000       0x18 c:/program files (x86)/microchip/xc32/v1.40/bin/bin/../../lib/gcc/pic32mx/4.8.3/../../../../pic32mx/lib\libc.a(strncpy.o)

Memory Configuration

Name             Origin             Length             Attributes
kseg0_boot_mem   0x9fc00490         0x00000970
kseg1_boot_mem   0xbfc00000         0x00000490
kseg0_program_mem 0x9d000000         0x00080000         xr
exception_mem    0x9fc01000         0x00001000
debug_exec_mem   0xbfc02000         0x00000ff0
config3          0xbfc02ff0         0x00000004
config2          0xbfc02ff4         0x00000004
config1          0xbfc02ff8         0x00000004
config0          0xbfc02ffc         0x00000004
kseg1_data_mem   0xa0000000         0x00020000         w !x
sfrs             0xbf800000         0x00100000
configsfrs       0xbfc02ff0         0x00000010
*default*        0x00000000         0xffffffff

Linker script and memory map


reserve_boot_0x1fc02000_kseg0
                0x9fc02000      0xff0
                0x9fc02000        0x2 SHORT 0x0
                0x00000500                . = 0x500
 *fill*         0x9fc02002      0x4fe 
                0x9fc02500                . = ALIGN (0x4)
                0x9fc02500        0x2 SHORT 0x0
                0x00000ff0                . = 0xff0
 *fill*         0x9fc02502      0xaee 
                0x9fc02ff0                . = ALIGN (0x4)

reserve_boot_0x1fc02000_kseg1
                0xbfc02000      0xff0
                0xbfc02000        0x2 SHORT 0x0
                0x00000500                . = 0x500
 *fill*         0xbfc02002      0x4fe 
                0xbfc02500                . = ALIGN (0x4)
                0xbfc02500        0x2 SHORT 0x0
                0x00000ff0                . = 0xff0
 *fill*         0xbfc02502      0xaee 
                0xbfc02ff0                . = ALIGN (0x4)
LOAD c:/program files (x86)/microchip/xc32/v1.40/bin/bin/../../lib/gcc/pic32mx/4.8.3/../../../../pic32mx/lib/./proc/32MX795F512L/crt0_mips32r2.o
LOAD c:/program files (x86)/microchip/xc32/v1.40/bin/bin/../../lib/gcc/pic32mx/4.8.3/../../../../pic32mx/lib\software-debug-break.o
                0x00000001                _DEBUGGER = 0x1
LOAD build/default/debug/_ext/1361460060/drv_adc_static.o
LOAD build/default/debug/_ext/1345626252/drv_usart_static.o
LOAD build/default/debug/_ext/639803181/sys_clk_static.o
LOAD build/default/debug/_ext/822048611/sys_ports_static.o
LOAD build/default/debug/_ext/1688732426/system_init.o
LOAD build/default/debug/_ext/1688732426/system_interrupt_a.o
LOAD build/default/debug/_ext/1688732426/system_exceptions.o
LOAD build/default/debug/_ext/1688732426/system_tasks.o
LOAD build/default/debug/_ext/1688732426/system_interrupt.o
LOAD build/default/debug/_ext/1688732426/rtos_hooks.o
LOAD build/default/debug/_ext/1360937237/timerCallback.o
LOAD build/default/debug/_ext/1360937237/sender.o
LOAD build/default/debug/_ext/1360937237/main.o
LOAD build/default/debug/_ext/1360937237/process.o
LOAD build/default/debug/_ext/1360937237/receive.o
LOAD build/default/debug/_ext/1360937237/send.o
LOAD build/default/debug/_ext/308321468/osal_freertos.o
LOAD build/default/debug/_ext/482662494/sys_devcon.o
LOAD build/default/debug/_ext/482662494/sys_devcon_pic32mx.o
LOAD build/default/debug/_ext/1042686532/sys_int_pic32.o
LOAD build/default/debug/_ext/826631961/sys_ports.o
LOAD build/default/debug/_ext/1107379230/heap_1.o
LOAD build/default/debug/_ext/1282498059/port_asm.o
LOAD build/default/debug/_ext/1282498059/port.o
LOAD build/default/debug/_ext/373060831/list.o
LOAD build/default/debug/_ext/373060831/croutine.o
LOAD build/default/debug/_ext/373060831/tasks.o
LOAD build/default/debug/_ext/373060831/event_groups.o
LOAD build/default/debug/_ext/373060831/timers.o
LOAD build/default/debug/_ext/373060831/queue.o
LOAD build/default/debug/_ext/1360937237/debug.o
LOAD ..\..\..\..\..\bin\framework\peripheral\PIC32MX795F512L_peripherals.a
                0x00000001                __MPLAB_BUILD = 0x1
                0x00000001                __MPLAB_DEBUG = 0x1
                0x00000001                __DEBUG = 0x1
                0x00000001                __MPLAB_DEBUGGER_PK3 = 0x1
                0x00000000                _min_heap_size = 0x0
LOAD c:/program files (x86)/microchip/xc32/v1.40/bin/bin/../../lib/gcc/pic32mx/4.8.3/../../../../pic32mx/lib/./proc/32MX795F512L\default_isr_vectors.o
LOAD c:/program files (x86)/microchip/xc32/v1.40/bin/bin/../../lib/gcc/pic32mx/4.8.3/../../../../pic32mx/lib\pic32_software_reset.o
                0x00000400                PROVIDE (_min_stack_size, 0x400)
LOAD c:/program files (x86)/microchip/xc32/v1.40/bin/bin/../../lib/gcc/pic32mx/4.8.3/../../../../pic32mx/lib/./proc/32MX795F512L\processor.o
START GROUP
LOAD libmchp_peripheral.a
END GROUP
START GROUP
LOAD libmchp_peripheral_32MX795F512L.a
END GROUP
                0x00000001                PROVIDE (_vector_spacing, 0x1)
                0x9fc01000                _ebase_address = 0x9fc01000
                0xbfc00000                _RESET_ADDR = 0xbfc00000
                0xbfc00380                _BEV_EXCPT_ADDR = 0xbfc00380
                0xbfc00480                _DBG_EXCPT_ADDR = 0xbfc00480
                0xbfc02000                _DBG_CODE_ADDR = 0xbfc02000
                0x00000ff0                _DBG_CODE_SIZE = 0xff0
                0x9fc01180                _GEN_EXCPT_ADDR = (_ebase_address + 0x180)

.config_BFC02FF0
                0xbfc02ff0        0x4
 *(.config_BFC02FF0)
 .config_BFC02FF0
                0xbfc02ff0        0x4 build/default/debug/_ext/1688732426/system_init.o

.config_BFC02FF4
                0xbfc02ff4        0x4
 *(.config_BFC02FF4)
 .config_BFC02FF4
                0xbfc02ff4        0x4 build/default/debug/_ext/1688732426/system_init.o

.config_BFC02FF8
                0xbfc02ff8        0x4
 *(.config_BFC02FF8)
 .config_BFC02FF8
                0xbfc02ff8        0x4 build/default/debug/_ext/1688732426/system_init.o

.config_BFC02FFC
                0xbfc02ffc        0x4
 *(.config_BFC02FFC)
 .config_BFC02FFC
                0xbfc02ffc        0x4 build/default/debug/_ext/1688732426/system_init.o
                0xbfc02000                PROVIDE (_DBG_CODE_ADDR, 0xbfc02000)
                0x00000ff0                PROVIDE (_DBG_CODE_SIZE, 0xff0)

.reset          0xbfc00000      0x1f4
 *(.reset)
 .reset         0xbfc00000        0x8 c:/program files (x86)/microchip/xc32/v1.40/bin/bin/../../lib/gcc/pic32mx/4.8.3/../../../../pic32mx/lib/./proc/32MX795F512L/crt0_mips32r2.o
                0xbfc00000                _reset
 *(.reset.startup)
 .reset.startup
                0xbfc00008      0x1ec c:/program files (x86)/microchip/xc32/v1.40/bin/bin/../../lib/gcc/pic32mx/4.8.3/../../../../pic32mx/lib/./proc/32MX795F512L/crt0_mips32r2.o

.bev_excpt      0xbfc00380       0x10
 *(.bev_handler)
 .bev_handler   0xbfc00380       0x10 c:/program files (x86)/microchip/xc32/v1.40/bin/bin/../../lib/gcc/pic32mx/4.8.3/../../../../pic32mx/lib/./proc/32MX795F512L/crt0_mips32r2.o

.dbg_excpt      0xbfc00480        0x8
                0xbfc00480                . = (. + DEFINED (_DEBUGGER)?0x8:0x0)
 *fill*         0xbfc00480        0x8 

.dbg_code       0xbfc02000      0xff0
                0xbfc02000                . = (. + DEFINED (_DEBUGGER)?_DBG_CODE_SIZE:0x0)
 *fill*         0xbfc02000      0xff0 

.app_excpt      0x9fc01180       0x10
 *(.gen_handler)
 .gen_handler   0x9fc01180       0x10 c:/program files (x86)/microchip/xc32/v1.40/bin/bin/../../lib/gcc/pic32mx/4.8.3/../../../../pic32mx/lib/./proc/32MX795F512L/crt0_mips32r2.o

.vector_0       0x9fc01200        0x8
 *(.vector_0)
 .vector_0      0x9fc01200        0x8 c:/program files (x86)/microchip/xc32/v1.40/bin/bin/../../lib/gcc/pic32mx/4.8.3/../../../../pic32mx/lib\libpic32.a(vector0.o)
                0x9fc01200                __vector_dispatch_0
                0x00000001                ASSERT (((_vector_spacing == 0x0) || (SIZEOF (.vector_0) <= (_vector_spacing << 0x5))), function at exception vector 0 too large)

.vector_1       0x9fc01220        0x8
 *(.vector_1)
 .vector_1      0x9fc01220        0x8 build/default/debug/_ext/1282498059/port.o
                0x9fc01220                __vector_dispatch_1
                0x00000001                ASSERT (((_vector_spacing == 0x0) || (SIZEOF (.vector_1) <= (_vector_spacing << 0x5))), function at exception vector 1 too large)

.vector_2       0x9fc01240        0x8
 *(.vector_2)
 .vector_2      0x9fc01240        0x8 c:/program files (x86)/microchip/xc32/v1.40/bin/bin/../../lib/gcc/pic32mx/4.8.3/../../../../pic32mx/lib\libpic32.a(vector2.o)
                0x9fc01240                __vector_dispatch_2
                0x00000001                ASSERT (((_vector_spacing == 0x0) || (SIZEOF (.vector_2) <= (_vector_spacing << 0x5))), function at exception vector 2 too large)

.vector_3       0x9fc01260        0x8
 *(.vector_3)
 .vector_3      0x9fc01260        0x8 c:/program files (x86)/microchip/xc32/v1.40/bin/bin/../../lib/gcc/pic32mx/4.8.3/../../../../pic32mx/lib\libpic32.a(vector3.o)
                0x9fc01260                __vector_dispatch_3
                0x00000001                ASSERT (((_vector_spacing == 0x0) || (SIZEOF (.vector_3) <= (_vector_spacing << 0x5))), function at exception vector 3 too large)

.vector_4       0x9fc01280        0x8
 *(.vector_4)
 .vector_4      0x9fc01280        0x8 build/default/debug/_ext/1282498059/port.o
                0x9fc01280                __vector_dispatch_4
                0x00000001                ASSERT (((_vector_spacing == 0x0) || (SIZEOF (.vector_4) <= (_vector_spacing << 0x5))), function at exception vector 4 too large)

.vector_5       0x9fc012a0        0x8
 *(.vector_5)
 .vector_5      0x9fc012a0        0x8 c:/program files (x86)/microchip/xc32/v1.40/bin/bin/../../lib/gcc/pic32mx/4.8.3/../../../../pic32mx/lib\libpic32.a(vector5.o)
                0x9fc012a0                __vector_dispatch_5
                0x00000001                ASSERT (((_vector_spacing == 0x0) || (SIZEOF (.vector_5) <= (_vector_spacing << 0x5))), function at exception vector 5 too large)

.vector_6       0x9fc012c0        0x8
 *(.vector_6)
 .vector_6      0x9fc012c0        0x8 c:/program files (x86)/microchip/xc32/v1.40/bin/bin/../../lib/gcc/pic32mx/4.8.3/../../../../pic32mx/lib\libpic32.a(vector6.o)
                0x9fc012c0                __vector_dispatch_6
                0x00000001                ASSERT (((_vector_spacing == 0x0) || (SIZEOF (.vector_6) <= (_vector_spacing << 0x5))), function at exception vector 6 too large)

.vector_7       0x9fc012e0        0x8
 *(.vector_7)
 .vector_7      0x9fc012e0        0x8 c:/program files (x86)/microchip/xc32/v1.40/bin/bin/../../lib/gcc/pic32mx/4.8.3/../../../../pic32mx/lib\libpic32.a(vector7.o)
                0x9fc012e0                __vector_dispatch_7
                0x00000001                ASSERT (((_vector_spacing == 0x0) || (SIZEOF (.vector_7) <= (_vector_spacing << 0x5))), function at exception vector 7 too large)

.vector_8       0x9fc01300        0x8
 *(.vector_8)
 .vector_8      0x9fc01300        0x8 c:/program files (x86)/microchip/xc32/v1.40/bin/bin/../../lib/gcc/pic32mx/4.8.3/../../../../pic32mx/lib\libpic32.a(vector8.o)
                0x9fc01300                __vector_dispatch_8
                0x00000001                ASSERT (((_vector_spacing == 0x0) || (SIZEOF (.vector_8) <= (_vector_spacing << 0x5))), function at exception vector 8 too large)

.vector_9       0x9fc01320        0x8
 *(.vector_9)
 .vector_9      0x9fc01320        0x8 c:/program files (x86)/microchip/xc32/v1.40/bin/bin/../../lib/gcc/pic32mx/4.8.3/../../../../pic32mx/lib\libpic32.a(vector9.o)
                0x9fc01320                __vector_dispatch_9
                0x00000001                ASSERT (((_vector_spacing == 0x0) || (SIZEOF (.vector_9) <= (_vector_spacing << 0x5))), function at exception vector 9 too large)

.vector_10      0x9fc01340        0x8
 *(.vector_10)
 .vector_10     0x9fc01340        0x8 c:/program files (x86)/microchip/xc32/v1.40/bin/bin/../../lib/gcc/pic32mx/4.8.3/../../../../pic32mx/lib\libpic32.a(vector10.o)
                0x9fc01340                __vector_dispatch_10
                0x00000001                ASSERT (((_vector_spacing == 0x0) || (SIZEOF (.vector_10) <= (_vector_spacing << 0x5))), function at exception vector 10 too large)

.vector_11      0x9fc01360        0x8
 *(.vector_11)
 .vector_11     0x9fc01360        0x8 c:/program files (x86)/microchip/xc32/v1.40/bin/bin/../../lib/gcc/pic32mx/4.8.3/../../../../pic32mx/lib\libpic32.a(vector11.o)
                0x9fc01360                __vector_dispatch_11
                0x00000001                ASSERT (((_vector_spacing == 0x0) || (SIZEOF (.vector_11) <= (_vector_spacing << 0x5))), function at exception vector 11 too large)

.vector_12      0x9fc01380        0x8
 *(.vector_12)
 .vector_12     0x9fc01380        0x8 c:/program files (x86)/microchip/xc32/v1.40/bin/bin/../../lib/gcc/pic32mx/4.8.3/../../../../pic32mx/lib\libpic32.a(vector12.o)
                0x9fc01380                __vector_dispatch_12
                0x00000001                ASSERT (((_vector_spacing == 0x0) || (SIZEOF (.vector_12) <= (_vector_spacing << 0x5))), function at exception vector 12 too large)

.vector_13      0x9fc013a0        0x8
 *(.vector_13)
 .vector_13     0x9fc013a0        0x8 c:/program files (x86)/microchip/xc32/v1.40/bin/bin/../../lib/gcc/pic32mx/4.8.3/../../../../pic32mx/lib\libpic32.a(vector13.o)
                0x9fc013a0                __vector_dispatch_13
                0x00000001                ASSERT (((_vector_spacing == 0x0) || (SIZEOF (.vector_13) <= (_vector_spacing << 0x5))), function at exception vector 13 too large)

.vector_14      0x9fc013c0        0x8
 *(.vector_14)
 .vector_14     0x9fc013c0        0x8 c:/program files (x86)/microchip/xc32/v1.40/bin/bin/../../lib/gcc/pic32mx/4.8.3/../../../../pic32mx/lib\libpic32.a(vector14.o)
                0x9fc013c0                __vector_dispatch_14
                0x00000001                ASSERT (((_vector_spacing == 0x0) || (SIZEOF (.vector_14) <= (_vector_spacing << 0x5))), function at exception vector 14 too large)

.vector_15      0x9fc013e0        0x8
 *(.vector_15)
 .vector_15     0x9fc013e0        0x8 c:/program files (x86)/microchip/xc32/v1.40/bin/bin/../../lib/gcc/pic32mx/4.8.3/../../../../pic32mx/lib\libpic32.a(vector15.o)
                0x9fc013e0                __vector_dispatch_15
                0x00000001                ASSERT (((_vector_spacing == 0x0) || (SIZEOF (.vector_15) <= (_vector_spacing << 0x5))), function at exception vector 15 too large)

.vector_16      0x9fc01400        0x8
 *(.vector_16)
 .vector_16     0x9fc01400        0x8 c:/program files (x86)/microchip/xc32/v1.40/bin/bin/../../lib/gcc/pic32mx/4.8.3/../../../../pic32mx/lib\libpic32.a(vector16.o)
                0x9fc01400                __vector_dispatch_16
                0x00000001                ASSERT (((_vector_spacing == 0x0) || (SIZEOF (.vector_16) <= (_vector_spacing << 0x5))), function at exception vector 16 too large)

.vector_17      0x9fc01420        0x8
 *(.vector_17)
 .vector_17     0x9fc01420        0x8 c:/program files (x86)/microchip/xc32/v1.40/bin/bin/../../lib/gcc/pic32mx/4.8.3/../../../../pic32mx/lib\libpic32.a(vector17.o)
                0x9fc01420                __vector_dispatch_17
                0x00000001                ASSERT (((_vector_spacing == 0x0) || (SIZEOF (.vector_17) <= (_vector_spacing << 0x5))), function at exception vector 17 too large)

.vector_18      0x9fc01440        0x8
 *(.vector_18)
 .vector_18     0x9fc01440        0x8 c:/program files (x86)/microchip/xc32/v1.40/bin/bin/../../lib/gcc/pic32mx/4.8.3/../../../../pic32mx/lib\libpic32.a(vector18.o)
                0x9fc01440                __vector_dispatch_18
                0x00000001                ASSERT (((_vector_spacing == 0x0) || (SIZEOF (.vector_18) <= (_vector_spacing << 0x5))), function at exception vector 18 too large)

.vector_19      0x9fc01460        0x8
 *(.vector_19)
 .vector_19     0x9fc01460        0x8 c:/program files (x86)/microchip/xc32/v1.40/bin/bin/../../lib/gcc/pic32mx/4.8.3/../../../../pic32mx/lib\libpic32.a(vector19.o)
                0x9fc01460                __vector_dispatch_19
                0x00000001                ASSERT (((_vector_spacing == 0x0) || (SIZEOF (.vector_19) <= (_vector_spacing << 0x5))), function at exception vector 19 too large)

.vector_20      0x9fc01480        0x8
 *(.vector_20)
 .vector_20     0x9fc01480        0x8 c:/program files (x86)/microchip/xc32/v1.40/bin/bin/../../lib/gcc/pic32mx/4.8.3/../../../../pic32mx/lib\libpic32.a(vector20.o)
                0x9fc01480                __vector_dispatch_20
                0x00000001                ASSERT (((_vector_spacing == 0x0) || (SIZEOF (.vector_20) <= (_vector_spacing << 0x5))), function at exception vector 20 too large)

.vector_21      0x9fc014a0        0x8
 *(.vector_21)
 .vector_21     0x9fc014a0        0x8 c:/program files (x86)/microchip/xc32/v1.40/bin/bin/../../lib/gcc/pic32mx/4.8.3/../../../../pic32mx/lib\libpic32.a(vector21.o)
                0x9fc014a0                __vector_dispatch_21
                0x00000001                ASSERT (((_vector_spacing == 0x0) || (SIZEOF (.vector_21) <= (_vector_spacing << 0x5))), function at exception vector 21 too large)

.vector_22      0x9fc014c0        0x8
 *(.vector_22)
 .vector_22     0x9fc014c0        0x8 c:/program files (x86)/microchip/xc32/v1.40/bin/bin/../../lib/gcc/pic32mx/4.8.3/../../../../pic32mx/lib\libpic32.a(vector22.o)
                0x9fc014c0                __vector_dispatch_22
                0x00000001                ASSERT (((_vector_spacing == 0x0) || (SIZEOF (.vector_22) <= (_vector_spacing << 0x5))), function at exception vector 22 too large)

.vector_23      0x9fc014e0        0x8
 *(.vector_23)
 .vector_23     0x9fc014e0        0x8 c:/program files (x86)/microchip/xc32/v1.40/bin/bin/../../lib/gcc/pic32mx/4.8.3/../../../../pic32mx/lib\libpic32.a(vector23.o)
                0x9fc014e0                __vector_dispatch_23
                0x00000001                ASSERT (((_vector_spacing == 0x0) || (SIZEOF (.vector_23) <= (_vector_spacing << 0x5))), function at exception vector 23 too large)

.vector_24      0x9fc01500       0x10
 *(.vector_24)
 .vector_24     0x9fc01500       0x10 build/default/debug/_ext/1688732426/system_interrupt_a.o
                0x9fc01500                __vector_dispatch_24
                0x00000001                ASSERT (((_vector_spacing == 0x0) || (SIZEOF (.vector_24) <= (_vector_spacing << 0x5))), function at exception vector 24 too large)

.vector_25      0x9fc01520        0x8
 *(.vector_25)
 .vector_25     0x9fc01520        0x8 c:/program files (x86)/microchip/xc32/v1.40/bin/bin/../../lib/gcc/pic32mx/4.8.3/../../../../pic32mx/lib\libpic32.a(vector25.o)
                0x9fc01520                __vector_dispatch_25
                0x00000001                ASSERT (((_vector_spacing == 0x0) || (SIZEOF (.vector_25) <= (_vector_spacing << 0x5))), function at exception vector 25 too large)

.vector_26      0x9fc01540        0x8
 *(.vector_26)
 .vector_26     0x9fc01540        0x8 c:/program files (x86)/microchip/xc32/v1.40/bin/bin/../../lib/gcc/pic32mx/4.8.3/../../../../pic32mx/lib\libpic32.a(vector26.o)
                0x9fc01540                __vector_dispatch_26
                0x00000001                ASSERT (((_vector_spacing == 0x0) || (SIZEOF (.vector_26) <= (_vector_spacing << 0x5))), function at exception vector 26 too large)

.vector_27      0x9fc01560       0x10
 *(.vector_27)
 .vector_27     0x9fc01560       0x10 build/default/debug/_ext/1688732426/system_interrupt_a.o
                0x9fc01560                __vector_dispatch_27
                0x00000001                ASSERT (((_vector_spacing == 0x0) || (SIZEOF (.vector_27) <= (_vector_spacing << 0x5))), function at exception vector 27 too large)

.vector_28      0x9fc01580        0x8
 *(.vector_28)
 .vector_28     0x9fc01580        0x8 c:/program files (x86)/microchip/xc32/v1.40/bin/bin/../../lib/gcc/pic32mx/4.8.3/../../../../pic32mx/lib\libpic32.a(vector28.o)
                0x9fc01580                __vector_dispatch_28
                0x00000001                ASSERT (((_vector_spacing == 0x0) || (SIZEOF (.vector_28) <= (_vector_spacing << 0x5))), function at exception vector 28 too large)

.vector_29      0x9fc015a0        0x8
 *(.vector_29)
 .vector_29     0x9fc015a0        0x8 c:/program files (x86)/microchip/xc32/v1.40/bin/bin/../../lib/gcc/pic32mx/4.8.3/../../../../pic32mx/lib\libpic32.a(vector29.o)
                0x9fc015a0                __vector_dispatch_29
                0x00000001                ASSERT (((_vector_spacing == 0x0) || (SIZEOF (.vector_29) <= (_vector_spacing << 0x5))), function at exception vector 29 too large)

.vector_30      0x9fc015c0        0x8
 *(.vector_30)
 .vector_30     0x9fc015c0        0x8 c:/program files (x86)/microchip/xc32/v1.40/bin/bin/../../lib/gcc/pic32mx/4.8.3/../../../../pic32mx/lib\libpic32.a(vector30.o)
                0x9fc015c0                __vector_dispatch_30
                0x00000001                ASSERT (((_vector_spacing == 0x0) || (SIZEOF (.vector_30) <= (_vector_spacing << 0x5))), function at exception vector 30 too large)

.vector_31      0x9fc015e0        0x8
 *(.vector_31)
 .vector_31     0x9fc015e0        0x8 c:/program files (x86)/microchip/xc32/v1.40/bin/bin/../../lib/gcc/pic32mx/4.8.3/../../../../pic32mx/lib\libpic32.a(vector31.o)
                0x9fc015e0                __vector_dispatch_31
                0x00000001                ASSERT (((_vector_spacing == 0x0) || (SIZEOF (.vector_31) <= (_vector_spacing << 0x5))), function at exception vector 31 too large)

.vector_32      0x9fc01600        0x8
 *(.vector_32)
 .vector_32     0x9fc01600        0x8 c:/program files (x86)/microchip/xc32/v1.40/bin/bin/../../lib/gcc/pic32mx/4.8.3/../../../../pic32mx/lib\libpic32.a(vector32.o)
                0x9fc01600                __vector_dispatch_32
                0x00000001                ASSERT (((_vector_spacing == 0x0) || (SIZEOF (.vector_32) <= (_vector_spacing << 0x5))), function at exception vector 32 too large)

.vector_33      0x9fc01620        0x8
 *(.vector_33)
 .vector_33     0x9fc01620        0x8 c:/program files (x86)/microchip/xc32/v1.40/bin/bin/../../lib/gcc/pic32mx/4.8.3/../../../../pic32mx/lib\libpic32.a(vector33.o)
                0x9fc01620                __vector_dispatch_33
                0x00000001                ASSERT (((_vector_spacing == 0x0) || (SIZEOF (.vector_33) <= (_vector_spacing << 0x5))), function at exception vector 33 too large)

.vector_34      0x9fc01640        0x8
 *(.vector_34)
 .vector_34     0x9fc01640        0x8 c:/program files (x86)/microchip/xc32/v1.40/bin/bin/../../lib/gcc/pic32mx/4.8.3/../../../../pic32mx/lib\libpic32.a(vector34.o)
                0x9fc01640                __vector_dispatch_34
                0x00000001                ASSERT (((_vector_spacing == 0x0) || (SIZEOF (.vector_34) <= (_vector_spacing << 0x5))), function at exception vector 34 too large)

.vector_35      0x9fc01660        0x8
 *(.vector_35)
 .vector_35     0x9fc01660        0x8 c:/program files (x86)/microchip/xc32/v1.40/bin/bin/../../lib/gcc/pic32mx/4.8.3/../../../../pic32mx/lib\libpic32.a(vector35.o)
                0x9fc01660                __vector_dispatch_35
                0x00000001                ASSERT (((_vector_spacing == 0x0) || (SIZEOF (.vector_35) <= (_vector_spacing << 0x5))), function at exception vector 35 too large)

.vector_36      0x9fc01680        0x8
 *(.vector_36)
 .vector_36     0x9fc01680        0x8 c:/program files (x86)/microchip/xc32/v1.40/bin/bin/../../lib/gcc/pic32mx/4.8.3/../../../../pic32mx/lib\libpic32.a(vector36.o)
                0x9fc01680                __vector_dispatch_36
                0x00000001                ASSERT (((_vector_spacing == 0x0) || (SIZEOF (.vector_36) <= (_vector_spacing << 0x5))), function at exception vector 36 too large)

.vector_37      0x9fc016a0        0x8
 *(.vector_37)
 .vector_37     0x9fc016a0        0x8 c:/program files (x86)/microchip/xc32/v1.40/bin/bin/../../lib/gcc/pic32mx/4.8.3/../../../../pic32mx/lib\libpic32.a(vector37.o)
                0x9fc016a0                __vector_dispatch_37
                0x00000001                ASSERT (((_vector_spacing == 0x0) || (SIZEOF (.vector_37) <= (_vector_spacing << 0x5))), function at exception vector 37 too large)

.vector_38      0x9fc016c0        0x8
 *(.vector_38)
 .vector_38     0x9fc016c0        0x8 c:/program files (x86)/microchip/xc32/v1.40/bin/bin/../../lib/gcc/pic32mx/4.8.3/../../../../pic32mx/lib\libpic32.a(vector38.o)
                0x9fc016c0                __vector_dispatch_38
                0x00000001                ASSERT (((_vector_spacing == 0x0) || (SIZEOF (.vector_38) <= (_vector_spacing << 0x5))), function at exception vector 38 too large)

.vector_39      0x9fc016e0        0x8
 *(.vector_39)
 .vector_39     0x9fc016e0        0x8 c:/program files (x86)/microchip/xc32/v1.40/bin/bin/../../lib/gcc/pic32mx/4.8.3/../../../../pic32mx/lib\libpic32.a(vector39.o)
                0x9fc016e0                __vector_dispatch_39
                0x00000001                ASSERT (((_vector_spacing == 0x0) || (SIZEOF (.vector_39) <= (_vector_spacing << 0x5))), function at exception vector 39 too large)

.vector_40      0x9fc01700        0x8
 *(.vector_40)
 .vector_40     0x9fc01700        0x8 c:/program files (x86)/microchip/xc32/v1.40/bin/bin/../../lib/gcc/pic32mx/4.8.3/../../../../pic32mx/lib\libpic32.a(vector40.o)
                0x9fc01700                __vector_dispatch_40
                0x00000001                ASSERT (((_vector_spacing == 0x0) || (SIZEOF (.vector_40) <= (_vector_spacing << 0x5))), function at exception vector 40 too large)

.vector_41      0x9fc01720        0x8
 *(.vector_41)
 .vector_41     0x9fc01720        0x8 c:/program files (x86)/microchip/xc32/v1.40/bin/bin/../../lib/gcc/pic32mx/4.8.3/../../../../pic32mx/lib\libpic32.a(vector41.o)
                0x9fc01720                __vector_dispatch_41
                0x00000001                ASSERT (((_vector_spacing == 0x0) || (SIZEOF (.vector_41) <= (_vector_spacing << 0x5))), function at exception vector 41 too large)

.vector_42      0x9fc01740        0x8
 *(.vector_42)
 .vector_42     0x9fc01740        0x8 c:/program files (x86)/microchip/xc32/v1.40/bin/bin/../../lib/gcc/pic32mx/4.8.3/../../../../pic32mx/lib\libpic32.a(vector42.o)
                0x9fc01740                __vector_dispatch_42
                0x00000001                ASSERT (((_vector_spacing == 0x0) || (SIZEOF (.vector_42) <= (_vector_spacing << 0x5))), function at exception vector 42 too large)

.vector_43      0x9fc01760        0x8
 *(.vector_43)
 .vector_43     0x9fc01760        0x8 c:/program files (x86)/microchip/xc32/v1.40/bin/bin/../../lib/gcc/pic32mx/4.8.3/../../../../pic32mx/lib\libpic32.a(vector43.o)
                0x9fc01760                __vector_dispatch_43
                0x00000001                ASSERT (((_vector_spacing == 0x0) || (SIZEOF (.vector_43) <= (_vector_spacing << 0x5))), function at exception vector 43 too large)

.vector_44      0x9fc01780        0x8
 *(.vector_44)
 .vector_44     0x9fc01780        0x8 c:/program files (x86)/microchip/xc32/v1.40/bin/bin/../../lib/gcc/pic32mx/4.8.3/../../../../pic32mx/lib\libpic32.a(vector44.o)
                0x9fc01780                __vector_dispatch_44
                0x00000001                ASSERT (((_vector_spacing == 0x0) || (SIZEOF (.vector_44) <= (_vector_spacing << 0x5))), function at exception vector 44 too large)

.vector_45      0x9fc017a0        0x8
 *(.vector_45)
 .vector_45     0x9fc017a0        0x8 c:/program files (x86)/microchip/xc32/v1.40/bin/bin/../../lib/gcc/pic32mx/4.8.3/../../../../pic32mx/lib\libpic32.a(vector45.o)
                0x9fc017a0                __vector_dispatch_45
                0x00000001                ASSERT (((_vector_spacing == 0x0) || (SIZEOF (.vector_45) <= (_vector_spacing << 0x5))), function at exception vector 45 too large)

.vector_46      0x9fc017c0        0x8
 *(.vector_46)
 .vector_46     0x9fc017c0        0x8 c:/program files (x86)/microchip/xc32/v1.40/bin/bin/../../lib/gcc/pic32mx/4.8.3/../../../../pic32mx/lib\libpic32.a(vector46.o)
                0x9fc017c0                __vector_dispatch_46
                0x00000001                ASSERT (((_vector_spacing == 0x0) || (SIZEOF (.vector_46) <= (_vector_spacing << 0x5))), function at exception vector 46 too large)

.vector_47      0x9fc017e0        0x8
 *(.vector_47)
 .vector_47     0x9fc017e0        0x8 c:/program files (x86)/microchip/xc32/v1.40/bin/bin/../../lib/gcc/pic32mx/4.8.3/../../../../pic32mx/lib\libpic32.a(vector47.o)
                0x9fc017e0                __vector_dispatch_47
                0x00000001                ASSERT (((_vector_spacing == 0x0) || (SIZEOF (.vector_47) <= (_vector_spacing << 0x5))), function at exception vector 47 too large)

.vector_48      0x9fc01800        0x8
 *(.vector_48)
 .vector_48     0x9fc01800        0x8 c:/program files (x86)/microchip/xc32/v1.40/bin/bin/../../lib/gcc/pic32mx/4.8.3/../../../../pic32mx/lib\libpic32.a(vector48.o)
                0x9fc01800                __vector_dispatch_48
                0x00000001                ASSERT (((_vector_spacing == 0x0) || (SIZEOF (.vector_48) <= (_vector_spacing << 0x5))), function at exception vector 48 too large)

.vector_49      0x9fc01820        0x8
 *(.vector_49)
 .vector_49     0x9fc01820        0x8 c:/program files (x86)/microchip/xc32/v1.40/bin/bin/../../lib/gcc/pic32mx/4.8.3/../../../../pic32mx/lib\libpic32.a(vector49.o)
                0x9fc01820                __vector_dispatch_49
                0x00000001                ASSERT (((_vector_spacing == 0x0) || (SIZEOF (.vector_49) <= (_vector_spacing << 0x5))), function at exception vector 49 too large)

.vector_50      0x9fc01840        0x8
 *(.vector_50)
 .vector_50     0x9fc01840        0x8 c:/program files (x86)/microchip/xc32/v1.40/bin/bin/../../lib/gcc/pic32mx/4.8.3/../../../../pic32mx/lib\libpic32.a(vector50.o)
                0x9fc01840                __vector_dispatch_50
                0x00000001                ASSERT (((_vector_spacing == 0x0) || (SIZEOF (.vector_50) <= (_vector_spacing << 0x5))), function at exception vector 50 too large)

.vector_51      0x9fc01860        0x8
 *(.vector_51)
 .vector_51     0x9fc01860        0x8 c:/program files (x86)/microchip/xc32/v1.40/bin/bin/../../lib/gcc/pic32mx/4.8.3/../../../../pic32mx/lib\libpic32.a(vector51.o)
                0x9fc01860                __vector_dispatch_51
                0x00000001                ASSERT (((_vector_spacing == 0x0) || (SIZEOF (.vector_51) <= (_vector_spacing << 0x5))), function at exception vector 51 too large)

.vector_52      0x9fc01880        0x0
 *(.vector_52)
                0x00000001                ASSERT (((_vector_spacing == 0x0) || (SIZEOF (.vector_52) <= (_vector_spacing << 0x5))), function at exception vector 52 too large)

.vector_53      0x9fc018a0        0x0
 *(.vector_53)
                0x00000001                ASSERT (((_vector_spacing == 0x0) || (SIZEOF (.vector_53) <= (_vector_spacing << 0x5))), function at exception vector 53 too large)

.vector_54      0x9fc018c0        0x0
 *(.vector_54)
                0x00000001                ASSERT (((_vector_spacing == 0x0) || (SIZEOF (.vector_54) <= (_vector_spacing << 0x5))), function at exception vector 54 too large)

.vector_55      0x9fc018e0        0x0
 *(.vector_55)
                0x00000001                ASSERT (((_vector_spacing == 0x0) || (SIZEOF (.vector_55) <= (_vector_spacing << 0x5))), function at exception vector 55 too large)

.vector_56      0x9fc01900        0x0
 *(.vector_56)
                0x00000001                ASSERT (((_vector_spacing == 0x0) || (SIZEOF (.vector_56) <= (_vector_spacing << 0x5))), function at exception vector 56 too large)

.vector_57      0x9fc01920        0x0
 *(.vector_57)
                0x00000001                ASSERT (((_vector_spacing == 0x0) || (SIZEOF (.vector_57) <= (_vector_spacing << 0x5))), function at exception vector 57 too large)

.vector_58      0x9fc01940        0x0
 *(.vector_58)
                0x00000001                ASSERT (((_vector_spacing == 0x0) || (SIZEOF (.vector_58) <= (_vector_spacing << 0x5))), function at exception vector 58 too large)

.vector_59      0x9fc01960        0x0
 *(.vector_59)
                0x00000001                ASSERT (((_vector_spacing == 0x0) || (SIZEOF (.vector_59) <= (_vector_spacing << 0x5))), function at exception vector 59 too large)

.vector_60      0x9fc01980        0x0
 *(.vector_60)
                0x00000001                ASSERT (((_vector_spacing == 0x0) || (SIZEOF (.vector_60) <= (_vector_spacing << 0x5))), function at exception vector 60 too large)

.vector_61      0x9fc019a0        0x0
 *(.vector_61)
                0x00000001                ASSERT (((_vector_spacing == 0x0) || (SIZEOF (.vector_61) <= (_vector_spacing << 0x5))), function at exception vector 61 too large)

.vector_62      0x9fc019c0        0x0
 *(.vector_62)
                0x00000001                ASSERT (((_vector_spacing == 0x0) || (SIZEOF (.vector_62) <= (_vector_spacing << 0x5))), function at exception vector 62 too large)

.vector_63      0x9fc019e0        0x0
 *(.vector_63)
                0x00000001                ASSERT (((_vector_spacing == 0x0) || (SIZEOF (.vector_63) <= (_vector_spacing << 0x5))), function at exception vector 63 too large)

.startup
 *(.startup)

.text           0x9d000000        0x0
 *(.stub .gnu.linkonce.t.*)
 *(.text.*personality*)
 *(.mips16.fn.*)
 *(.mips16.call.*)
 *(.gnu.warning)
                0x9d000000                . = ALIGN (0x4)

.init           0x9d000000        0x0
 *crti.o(.init)
 *crtbegin.o(.init)
 *(EXCLUDE_FILE(*crtn.o *crtend?.o *crtend.o) .init)
 *crtend.o(.init)
 *crtn.o(.init)
                0x9d000000                . = ALIGN (0x4)

.fini           0x9d000000        0x0
 *(.fini)
                0x9d000000                . = ALIGN (0x4)

.preinit_array  0x9d000000        0x0
                0x9d000000                PROVIDE (__preinit_array_start, .)
 *(.preinit_array)
                0x9d000000                PROVIDE (__preinit_array_end, .)
                0x9d000000                . = ALIGN (0x4)

.init_array     0x9d000000        0x0
                0x9d000000                PROVIDE (__init_array_start, .)
 *(SORT(.init_array.*))
 *(.init_array)
                0x9d000000                PROVIDE (__init_array_end, .)
                0x9d000000                . = ALIGN (0x4)

.fini_array     0x9d000000        0x0
                0x9d000000                PROVIDE (__fini_array_start, .)
 *(SORT(.fini_array.*))
 *(.fini_array)
                0x9d000000                PROVIDE (__fini_array_end, .)
                0x9d000000                . = ALIGN (0x4)

.ctors          0x9d000000        0x0
 *crtbegin.o(.ctors)
 *crtbegin?.o(.ctors)
 *(EXCLUDE_FILE(*crtend?.o *crtend.o) .ctors)
 *(SORT(.ctors.*))
 *(.ctors)
                0x9d000000                . = ALIGN (0x4)

.dtors          0x9d000000        0x0
 *crtbegin.o(.dtors)
 *crtbegin?.o(.dtors)
 *(EXCLUDE_FILE(*crtend?.o *crtend.o) .dtors)
 *(SORT(.dtors.*))
 *(.dtors)
                0x9d000000                . = ALIGN (0x4)

.rodata         0x9d000000        0x0
 *(.gnu.linkonce.r.*)
 *(.rodata1)
                0x9d000000                . = ALIGN (0x4)

.sdata2         0x9fc00490        0x0
 *(.sdata2 .sdata2.* .gnu.linkonce.s2.*)
                0x9fc00490                . = ALIGN (0x4)

.sbss2          0x9fc00490        0x0
 *(.sbss2 .sbss2.* .gnu.linkonce.sb2.*)
                0x9fc00490                . = ALIGN (0x4)

.eh_frame_hdr
 *(.eh_frame_hdr)
                0x9fc00490                . = ALIGN (0x4)

.eh_frame
 *(.eh_frame)
                0x9fc00490                . = ALIGN (0x4)

.gcc_except_table
 *(.gcc_except_table .gcc_except_table.*)
                0x9fc00490                . = ALIGN (0x4)

.dbg_data       0xa0000000      0x200
                0xa0000000                . = (. + DEFINED (_DEBUGGER)?0x200:0x0)
 *fill*         0xa0000000      0x200 

.jcr            0xa0000200        0x0
 *(.jcr)
                0xa0000200                . = ALIGN (0x4)

.eh_frame
 *(.eh_frame)
                0xa0000200                . = ALIGN (0x4)

.gcc_except_table
 *(.gcc_except_table .gcc_except_table.*)
                0xa0000200                . = ALIGN (0x4)

.persist        0xa0000200        0x0
                0xa0000200                _persist_begin = .
 *(.persist .persist.*)
 *(.pbss .pbss.*)
                0xa0000200                . = ALIGN (0x4)
                0xa0000200                _persist_end = .

.data           0xa0000200        0x0
 *(.gnu.linkonce.d.*)
 *(.data1)
                0xa0000200                . = ALIGN (0x4)
                0xa0000200                . = .
                0xa00081f0                _gp = (ALIGN (0x10) + 0x7ff0)

.got            0xa0000200        0x0
 *(.got.plt)
 *(.got)
                0xa0000200                . = ALIGN (0x4)

.sdata          0xa0000200        0x8
                0xa0000200                _sdata_begin = .
 *(.sdata .sdata.* .gnu.linkonce.s.*)
 .sdata         0xa0000200        0x4 build/default/debug/_ext/1282498059/port.o
                0xa0000200                uxInterruptNesting
 .sdata         0xa0000204        0x4 build/default/debug/_ext/373060831/tasks.o
                0xa0000204                xNextTaskUnblockTime
                0xa0000208                . = ALIGN (0x4)
                0xa0000208                _sdata_end = .

.lit8
 *(.lit8)

.lit4
 *(.lit4)
                0xa0000208                . = ALIGN (0x4)
                0xa0000208                _data_end = .
                0xa0000208                _bss_begin = .

.sbss           0xa0000208       0x74
                0xa0000208                _sbss_begin = .
 *(.dynsbss)
 *(.sbss .sbss.* .gnu.linkonce.sb.*)
 .sbss          0xa0000208        0xc build/default/debug/_ext/1688732426/system_exceptions.o
 .sbss          0xa0000214        0x8 build/default/debug/_ext/1360937237/timerCallback.o
                0xa0000214                sendms
                0xa0000218                motorTick
 .sbss          0xa000021c        0x8 build/default/debug/_ext/1107379230/heap_1.o
 .sbss          0xa0000224        0x4 build/default/debug/_ext/1282498059/port.o
                0xa0000224                uxSavedTaskStackPointer
 .sbss          0xa0000228       0x2c build/default/debug/_ext/373060831/tasks.o
                0xa0000228                pxCurrentTCB
                0xa000022c                uxTasksDeleted
                0xa0000230                uxCurrentNumberOfTasks
                0xa0000234                xTickCount
                0xa0000238                uxTopReadyPriority
                0xa000023c                xSchedulerRunning
                0xa0000240                uxPendedTicks
                0xa0000244                xYieldPending
                0xa0000248                xNumOfOverflows
                0xa000024c                uxTaskNumber
                0xa0000250                uxSchedulerSuspended
 .sbss          0xa0000254       0x10 build/default/debug/_ext/373060831/timers.o
 *(.scommon)
 .scommon       0xa0000264        0x4 build/default/debug/_ext/1688732426/system_init.o
                0xa0000264                sysObj
 .scommon       0xa0000268        0x4 build/default/debug/_ext/1360937237/sender.o
                0xa0000268                global_data
 .scommon       0xa000026c        0x8 build/default/debug/_ext/482662494/sys_devcon.o
                0xa000026c                sysDevconObj
 .scommon       0xa0000274        0x8 build/default/debug/_ext/373060831/tasks.o
                0xa0000274                pxDelayedTaskList
                0xa0000278                pxOverflowDelayedTaskList
 .scommon       0xa000027c        0x0 build/default/debug/_ext/1360937237/debug.o
                0xa000027c                _sbss_end = .
                0xa000027c                . = ALIGN (0x4)

.bss            0xa000027c      0x42c
 *(.dynbss)
 *(COMMON)
 COMMON         0xa000027c      0x304 build/default/debug/_ext/1360937237/process.o
                0xa000027c                processData
 COMMON         0xa0000580       0x40 build/default/debug/_ext/1360937237/receive.o
                0xa0000580                messageBuffer
                0xa000059c                receiveData
 COMMON         0xa00005c0       0x20 build/default/debug/_ext/1360937237/send.o
                0xa00005c0                sendData
 COMMON         0xa00005e0       0xc8 build/default/debug/_ext/373060831/tasks.o
                0xa00005e0                pxReadyTasksLists
                0xa0000644                xPendingReadyList
                0xa0000658                xTasksWaitingTermination
                0xa000066c                xSuspendedTaskList
                0xa0000680                xDelayedTaskList2
                0xa0000694                xDelayedTaskList1
                0xa00006a8                . = ALIGN ((. != 0x0)?0x4:0x1)
                0xa00006a8                . = ALIGN (0x4)
                0xa00006a8                _end = .
                0xa00006a8                _bss_end = .
                0x00020000                _bmxdudba_address = 0x20000
                0x00020000                _bmxdupba_address = 0x20000

/DISCARD/
 *(.pdr)
 *(.rel.dyn)
 *(.note.GNU-stack)
 *(.note.GNU-stack)
 *(.gnu_debuglink)
 *(.gnu.lto_*)
 *(.discard)

.gptab.sdata
 *(.gptab.data)
 *(.gptab.sdata)

.gptab.sbss
 *(.gptab.bss)
 *(.gptab.sbss)

.mdebug.abi32   0xa00006a8        0x0
 *(.mdebug.abi32)
 .mdebug.abi32  0xa00006a8        0x0 c:/program files (x86)/microchip/xc32/v1.40/bin/bin/../../lib/gcc/pic32mx/4.8.3/../../../../pic32mx/lib\software-debug-break.o
 .mdebug.abi32  0xa00006a8        0x0 build/default/debug/_ext/1361460060/drv_adc_static.o
 .mdebug.abi32  0xa00006a8        0x0 build/default/debug/_ext/1345626252/drv_usart_static.o
 .mdebug.abi32  0xa00006a8        0x0 build/default/debug/_ext/639803181/sys_clk_static.o
 .mdebug.abi32  0xa00006a8        0x0 build/default/debug/_ext/822048611/sys_ports_static.o
 .mdebug.abi32  0xa00006a8        0x0 build/default/debug/_ext/1688732426/system_init.o
 .mdebug.abi32  0xa00006a8        0x0 build/default/debug/_ext/1688732426/system_exceptions.o
 .mdebug.abi32  0xa00006a8        0x0 build/default/debug/_ext/1688732426/system_tasks.o
 .mdebug.abi32  0xa00006a8        0x0 build/default/debug/_ext/1688732426/system_interrupt.o
 .mdebug.abi32  0xa00006a8        0x0 build/default/debug/_ext/1688732426/rtos_hooks.o
 .mdebug.abi32  0xa00006a8        0x0 build/default/debug/_ext/1360937237/timerCallback.o
 .mdebug.abi32  0xa00006a8        0x0 build/default/debug/_ext/1360937237/sender.o
 .mdebug.abi32  0xa00006a8        0x0 build/default/debug/_ext/1360937237/main.o
 .mdebug.abi32  0xa00006a8        0x0 build/default/debug/_ext/1360937237/process.o
 .mdebug.abi32  0xa00006a8        0x0 build/default/debug/_ext/1360937237/receive.o
 .mdebug.abi32  0xa00006a8        0x0 build/default/debug/_ext/1360937237/send.o
 .mdebug.abi32  0xa00006a8        0x0 build/default/debug/_ext/308321468/osal_freertos.o
 .mdebug.abi32  0xa00006a8        0x0 build/default/debug/_ext/482662494/sys_devcon.o
 .mdebug.abi32  0xa00006a8        0x0 build/default/debug/_ext/482662494/sys_devcon_pic32mx.o
 .mdebug.abi32  0xa00006a8        0x0 build/default/debug/_ext/1042686532/sys_int_pic32.o
 .mdebug.abi32  0xa00006a8        0x0 build/default/debug/_ext/826631961/sys_ports.o
 .mdebug.abi32  0xa00006a8        0x0 build/default/debug/_ext/1107379230/heap_1.o
 .mdebug.abi32  0xa00006a8        0x0 build/default/debug/_ext/1282498059/port.o
 .mdebug.abi32  0xa00006a8        0x0 build/default/debug/_ext/373060831/list.o
 .mdebug.abi32  0xa00006a8        0x0 build/default/debug/_ext/373060831/croutine.o
 .mdebug.abi32  0xa00006a8        0x0 build/default/debug/_ext/373060831/tasks.o
 .mdebug.abi32  0xa00006a8        0x0 build/default/debug/_ext/373060831/event_groups.o
 .mdebug.abi32  0xa00006a8        0x0 build/default/debug/_ext/373060831/timers.o
 .mdebug.abi32  0xa00006a8        0x0 build/default/debug/_ext/373060831/queue.o
 .mdebug.abi32  0xa00006a8        0x0 build/default/debug/_ext/1360937237/debug.o
 .mdebug.abi32  0xa00006a8        0x0 c:/program files (x86)/microchip/xc32/v1.40/bin/bin/../../lib/gcc/pic32mx/4.8.3/../../../../pic32mx/lib\libpic32.a(default-bootstrap-exception-handler.o)
 .mdebug.abi32  0xa00006a8        0x0 c:/program files (x86)/microchip/xc32/v1.40/bin/bin/../../lib/gcc/pic32mx/4.8.3/../../../../pic32mx/lib\libpic32.a(default-on-reset.o)
 .mdebug.abi32  0xa00006a8        0x0 c:/program files (x86)/microchip/xc32/v1.40/bin/bin/../../lib/gcc/pic32mx/4.8.3/../../../../pic32mx/lib\libpic32.a(default-on-bootstrap.o)
 .mdebug.abi32  0xa00006a8        0x0 c:/program files (x86)/microchip/xc32/v1.40/bin/bin/../../lib/gcc/pic32mx/4.8.3/../../../../pic32mx/lib\libpic32.a(defaultinterrupt.o)
 .mdebug.abi32  0xa00006a8        0x0 c:/program files (x86)/microchip/xc32/v1.40/bin/bin/../../lib/gcc/pic32mx/4.8.3/../../../../pic32mx/lib\libm.a(w_sqrtf.o)
 .mdebug.abi32  0xa00006a8        0x0 c:/program files (x86)/microchip/xc32/v1.40/bin/bin/../../lib/gcc/pic32mx/4.8.3/../../../../pic32mx/lib\libm.a(s_lib_ver.o)
 .mdebug.abi32  0xa00006a8        0x0 c:/program files (x86)/microchip/xc32/v1.40/bin/bin/../../lib/gcc/pic32mx/4.8.3/../../../../pic32mx/lib\libc.a(errno.o)
 .mdebug.abi32  0xa00006a8        0x0 c:/program files (x86)/microchip/xc32/v1.40/bin/bin/../../lib/gcc/pic32mx/4.8.3/../../../../pic32mx/lib\libc.a(strncpy.o)

.mdebug.abiN32
 *(.mdebug.abiN32)

.mdebug.abi64
 *(.mdebug.abi64)

.mdebug.abiO64
 *(.mdebug.abiO64)

.mdebug.eabi32
 *(.mdebug.eabi32)

.mdebug.eabi64
 *(.mdebug.eabi64)

.gcc_compiled_long32
 *(.gcc_compiled_long32)

.gcc_compiled_long64
 *(.gcc_compiled_long64)

.stab
 *(.stab)

.stabstr
 *(.stabstr)

.stab.excl
 *(.stab.excl)

.stab.exclstr
 *(.stab.exclstr)

.stab.index
 *(.stab.index)

.stab.indexstr
 *(.stab.indexstr)

.comment        0x00000000       0x6c
 *(.comment)
 .comment       0x00000000       0x3c c:/program files (x86)/microchip/xc32/v1.40/bin/bin/../../lib/gcc/pic32mx/4.8.3/../../../../pic32mx/lib\software-debug-break.o
                                 0x3d (size before relaxing)
 .comment       0x00000000       0x3d build/default/debug/_ext/1361460060/drv_adc_static.o
 .comment       0x00000000       0x3d build/default/debug/_ext/1345626252/drv_usart_static.o
 .comment       0x00000000       0x3d build/default/debug/_ext/639803181/sys_clk_static.o
 .comment       0x00000000       0x3d build/default/debug/_ext/822048611/sys_ports_static.o
 .comment       0x00000000       0x3d build/default/debug/_ext/1688732426/system_init.o
 .comment       0x00000000       0x3d build/default/debug/_ext/1688732426/system_exceptions.o
 .comment       0x00000000       0x3d build/default/debug/_ext/1688732426/system_tasks.o
 .comment       0x00000000       0x3d build/default/debug/_ext/1688732426/system_interrupt.o
 .comment       0x00000000       0x3d build/default/debug/_ext/1688732426/rtos_hooks.o
 .comment       0x00000000       0x3d build/default/debug/_ext/1360937237/timerCallback.o
 .comment       0x00000000       0x3d build/default/debug/_ext/1360937237/sender.o
 .comment       0x00000000       0x3d build/default/debug/_ext/1360937237/main.o
 .comment       0x00000000       0x3d build/default/debug/_ext/1360937237/process.o
 .comment       0x00000000       0x3d build/default/debug/_ext/1360937237/receive.o
 .comment       0x00000000       0x3d build/default/debug/_ext/1360937237/send.o
 .comment       0x00000000       0x3d build/default/debug/_ext/308321468/osal_freertos.o
 .comment       0x00000000       0x3d build/default/debug/_ext/482662494/sys_devcon.o
 .comment       0x00000000       0x3d build/default/debug/_ext/482662494/sys_devcon_pic32mx.o
 .comment       0x00000000       0x3d build/default/debug/_ext/1042686532/sys_int_pic32.o
 .comment       0x00000000       0x3d build/default/debug/_ext/826631961/sys_ports.o
 .comment       0x00000000       0x3d build/default/debug/_ext/1107379230/heap_1.o
 .comment       0x00000000       0x3d build/default/debug/_ext/1282498059/port.o
 .comment       0x00000000       0x3d build/default/debug/_ext/373060831/list.o
 .comment       0x00000000       0x3d build/default/debug/_ext/373060831/croutine.o
 .comment       0x00000000       0x3d build/default/debug/_ext/373060831/tasks.o
 .comment       0x00000000       0x3d build/default/debug/_ext/373060831/event_groups.o
 .comment       0x00000000       0x3d build/default/debug/_ext/373060831/timers.o
 .comment       0x00000000       0x3d build/default/debug/_ext/373060831/queue.o
 .comment       0x00000000       0x3d build/default/debug/_ext/1360937237/debug.o
 .comment       0x0000003c       0x18 c:/program files (x86)/microchip/xc32/v1.40/bin/bin/../../lib/gcc/pic32mx/4.8.3/../../../../pic32mx/lib\libpic32.a(memset.o)
                                 0x19 (size before relaxing)
 .comment       0x00000000       0x3d c:/program files (x86)/microchip/xc32/v1.40/bin/bin/../../lib/gcc/pic32mx/4.8.3/../../../../pic32mx/lib\libpic32.a(default-bootstrap-exception-handler.o)
 .comment       0x00000000       0x3d c:/program files (x86)/microchip/xc32/v1.40/bin/bin/../../lib/gcc/pic32mx/4.8.3/../../../../pic32mx/lib\libpic32.a(default-on-reset.o)
 .comment       0x00000000       0x3d c:/program files (x86)/microchip/xc32/v1.40/bin/bin/../../lib/gcc/pic32mx/4.8.3/../../../../pic32mx/lib\libpic32.a(default-on-bootstrap.o)
 .comment       0x00000054       0x18 c:/program files (x86)/microchip/xc32/v1.40/bin/bin/../../lib/gcc/pic32mx/4.8.3/../../../../pic32mx/lib\libpic32.a(memcmp.o)
                                 0x19 (size before relaxing)
 .comment       0x00000000       0x3d c:/program files (x86)/microchip/xc32/v1.40/bin/bin/../../lib/gcc/pic32mx/4.8.3/../../../../pic32mx/lib\libpic32.a(defaultinterrupt.o)
 .comment       0x00000000       0x3d c:/program files (x86)/microchip/xc32/v1.40/bin/bin/../../lib/gcc/pic32mx/4.8.3/../../../../pic32mx/lib\libm.a(w_sqrtf.o)
 .comment       0x00000000       0x3d c:/program files (x86)/microchip/xc32/v1.40/bin/bin/../../lib/gcc/pic32mx/4.8.3/../../../../pic32mx/lib\libm.a(s_lib_ver.o)
 .comment       0x00000000       0x3d c:/program files (x86)/microchip/xc32/v1.40/bin/bin/../../lib/gcc/pic32mx/4.8.3/../../../../pic32mx/lib\libc.a(errno.o)
 .comment       0x00000000       0x3d c:/program files (x86)/microchip/xc32/v1.40/bin/bin/../../lib/gcc/pic32mx/4.8.3/../../../../pic32mx/lib\libc.a(strncpy.o)

.debug
 *(.debug)

.line
 *(.line)

.debug_srcinfo
 *(.debug_srcinfo)

.debug_sfnames
 *(.debug_sfnames)

.debug_aranges  0x00000000      0xb98
 *(.debug_aranges)
 .debug_aranges
                0x00000000       0x20 c:/program files (x86)/microchip/xc32/v1.40/bin/bin/../../lib/gcc/pic32mx/4.8.3/../../../../pic32mx/lib\software-debug-break.o
 .debug_aranges
                0x00000020       0x78 build/default/debug/_ext/1361460060/drv_adc_static.o
 .debug_aranges
                0x00000098       0x38 build/default/debug/_ext/1345626252/drv_usart_static.o
 .debug_aranges
                0x000000d0       0x38 build/default/debug/_ext/639803181/sys_clk_static.o
 .debug_aranges
                0x00000108       0x20 build/default/debug/_ext/822048611/sys_ports_static.o
 .debug_aranges
                0x00000128       0x20 build/default/debug/_ext/1688732426/system_init.o
 .debug_aranges
                0x00000148       0x38 build/default/debug/_ext/1688732426/system_interrupt_a.o
 .debug_aranges
                0x00000180       0x20 build/default/debug/_ext/1688732426/system_exceptions.o
 .debug_aranges
                0x000001a0       0x40 build/default/debug/_ext/1688732426/system_tasks.o
 .debug_aranges
                0x000001e0       0x28 build/default/debug/_ext/1688732426/system_interrupt.o
 .debug_aranges
                0x00000208       0x28 build/default/debug/_ext/1688732426/rtos_hooks.o
 .debug_aranges
                0x00000230       0x30 build/default/debug/_ext/1360937237/timerCallback.o
 .debug_aranges
                0x00000260       0x40 build/default/debug/_ext/1360937237/sender.o
 .debug_aranges
                0x000002a0       0x20 build/default/debug/_ext/1360937237/main.o
 .debug_aranges
                0x000002c0       0xb8 build/default/debug/_ext/1360937237/process.o
 .debug_aranges
                0x00000378       0x58 build/default/debug/_ext/1360937237/receive.o
 .debug_aranges
                0x000003d0       0x50 build/default/debug/_ext/1360937237/send.o
 .debug_aranges
                0x00000420       0x88 build/default/debug/_ext/308321468/osal_freertos.o
 .debug_aranges
                0x000004a8       0x78 build/default/debug/_ext/482662494/sys_devcon.o
 .debug_aranges
                0x00000520       0x20 build/default/debug/_ext/482662494/sys_devcon_pic32mx.o
 .debug_aranges
                0x00000540       0x48 build/default/debug/_ext/1042686532/sys_int_pic32.o
 .debug_aranges
                0x00000588       0xf8 build/default/debug/_ext/826631961/sys_ports.o
 .debug_aranges
                0x00000680       0x38 build/default/debug/_ext/1107379230/heap_1.o
 .debug_aranges
                0x000006b8       0x20 build/default/debug/_ext/1282498059/port_asm.o
 .debug_aranges
                0x000006d8       0x58 build/default/debug/_ext/1282498059/port.o
 .debug_aranges
                0x00000730       0x40 build/default/debug/_ext/373060831/list.o
 .debug_aranges
                0x00000770       0x18 build/default/debug/_ext/373060831/croutine.o
 .debug_aranges
                0x00000788      0x1a0 build/default/debug/_ext/373060831/tasks.o
 .debug_aranges
                0x00000928       0x60 build/default/debug/_ext/373060831/event_groups.o
 .debug_aranges
                0x00000988       0x70 build/default/debug/_ext/373060831/timers.o
 .debug_aranges
                0x000009f8       0xb8 build/default/debug/_ext/373060831/queue.o
 .debug_aranges
                0x00000ab0       0x28 build/default/debug/_ext/1360937237/debug.o
 .debug_aranges
                0x00000ad8       0x20 c:/program files (x86)/microchip/xc32/v1.40/bin/bin/../../lib/gcc/pic32mx/4.8.3/../../../../pic32mx/lib\libpic32.a(default-bootstrap-exception-handler.o)
 .debug_aranges
                0x00000af8       0x20 c:/program files (x86)/microchip/xc32/v1.40/bin/bin/../../lib/gcc/pic32mx/4.8.3/../../../../pic32mx/lib\libpic32.a(default-on-reset.o)
 .debug_aranges
                0x00000b18       0x20 c:/program files (x86)/microchip/xc32/v1.40/bin/bin/../../lib/gcc/pic32mx/4.8.3/../../../../pic32mx/lib\libpic32.a(default-on-bootstrap.o)
 .debug_aranges
                0x00000b38       0x20 c:/program files (x86)/microchip/xc32/v1.40/bin/bin/../../lib/gcc/pic32mx/4.8.3/../../../../pic32mx/lib\libpic32.a(defaultinterrupt.o)
 .debug_aranges
                0x00000b58       0x20 c:/program files (x86)/microchip/xc32/v1.40/bin/bin/../../lib/gcc/pic32mx/4.8.3/../../../../pic32mx/lib\libm.a(w_sqrtf.o)
 .debug_aranges
                0x00000b78       0x20 c:/program files (x86)/microchip/xc32/v1.40/bin/bin/../../lib/gcc/pic32mx/4.8.3/../../../../pic32mx/lib\libc.a(strncpy.o)

.debug_pubnames
 *(.debug_pubnames)

.debug_info     0x00000000    0x279a8
 *(.debug_info .gnu.linkonce.wi.*)
 .debug_info    0x00000000       0xd3 c:/program files (x86)/microchip/xc32/v1.40/bin/bin/../../lib/gcc/pic32mx/4.8.3/../../../../pic32mx/lib\software-debug-break.o
 .debug_info    0x000000d3     0x3e5c build/default/debug/_ext/1361460060/drv_adc_static.o
 .debug_info    0x00003f2f     0x3368 build/default/debug/_ext/1345626252/drv_usart_static.o
 .debug_info    0x00007297     0x1181 build/default/debug/_ext/639803181/sys_clk_static.o
 .debug_info    0x00008418     0x1282 build/default/debug/_ext/822048611/sys_ports_static.o
 .debug_info    0x0000969a     0x1522 build/default/debug/_ext/1688732426/system_init.o
 .debug_info    0x0000abbc       0xab build/default/debug/_ext/1688732426/system_interrupt_a.o
 .debug_info    0x0000ac67      0xff0 build/default/debug/_ext/1688732426/system_exceptions.o
 .debug_info    0x0000bc57      0xc4c build/default/debug/_ext/1688732426/system_tasks.o
 .debug_info    0x0000c8a3     0x16be build/default/debug/_ext/1688732426/system_interrupt.o
 .debug_info    0x0000df61      0x265 build/default/debug/_ext/1688732426/rtos_hooks.o
 .debug_info    0x0000e1c6     0x10e2 build/default/debug/_ext/1360937237/timerCallback.o
 .debug_info    0x0000f2a8     0x1423 build/default/debug/_ext/1360937237/sender.o
 .debug_info    0x000106cb      0x1bb build/default/debug/_ext/1360937237/main.o
 .debug_info    0x00010886     0x2d59 build/default/debug/_ext/1360937237/process.o
 .debug_info    0x000135df     0x17d6 build/default/debug/_ext/1360937237/receive.o
 .debug_info    0x00014db5     0x2506 build/default/debug/_ext/1360937237/send.o
 .debug_info    0x000172bb      0xaba build/default/debug/_ext/308321468/osal_freertos.o
 .debug_info    0x00017d75     0x109d build/default/debug/_ext/482662494/sys_devcon.o
 .debug_info    0x00018e12      0xd67 build/default/debug/_ext/482662494/sys_devcon_pic32mx.o
 .debug_info    0x00019b79     0x15d6 build/default/debug/_ext/1042686532/sys_int_pic32.o
 .debug_info    0x0001b14f     0x326b build/default/debug/_ext/826631961/sys_ports.o
 .debug_info    0x0001e3ba      0x38c build/default/debug/_ext/1107379230/heap_1.o
 .debug_info    0x0001e746       0xcf build/default/debug/_ext/1282498059/port_asm.o
 .debug_info    0x0001e815     0x11be build/default/debug/_ext/1282498059/port.o
 .debug_info    0x0001f9d3      0x48a build/default/debug/_ext/373060831/list.o
 .debug_info    0x0001fe5d      0x181 build/default/debug/_ext/373060831/croutine.o
 .debug_info    0x0001ffde     0x2a07 build/default/debug/_ext/373060831/tasks.o
 .debug_info    0x000229e5      0xd65 build/default/debug/_ext/373060831/event_groups.o
 .debug_info    0x0002374a     0x151e build/default/debug/_ext/373060831/timers.o
 .debug_info    0x00024c68     0x1859 build/default/debug/_ext/373060831/queue.o
 .debug_info    0x000264c1     0x1046 build/default/debug/_ext/1360937237/debug.o
 .debug_info    0x00027507       0xe3 c:/program files (x86)/microchip/xc32/v1.40/bin/bin/../../lib/gcc/pic32mx/4.8.3/../../../../pic32mx/lib\libpic32.a(default-bootstrap-exception-handler.o)
 .debug_info    0x000275ea       0xbd c:/program files (x86)/microchip/xc32/v1.40/bin/bin/../../lib/gcc/pic32mx/4.8.3/../../../../pic32mx/lib\libpic32.a(default-on-reset.o)
 .debug_info    0x000276a7       0xc5 c:/program files (x86)/microchip/xc32/v1.40/bin/bin/../../lib/gcc/pic32mx/4.8.3/../../../../pic32mx/lib\libpic32.a(default-on-bootstrap.o)
 .debug_info    0x0002776c       0xd7 c:/program files (x86)/microchip/xc32/v1.40/bin/bin/../../lib/gcc/pic32mx/4.8.3/../../../../pic32mx/lib\libpic32.a(defaultinterrupt.o)
 .debug_info    0x00027843       0xad c:/program files (x86)/microchip/xc32/v1.40/bin/bin/../../lib/gcc/pic32mx/4.8.3/../../../../pic32mx/lib\libm.a(w_sqrtf.o)
 .debug_info    0x000278f0       0xb8 c:/program files (x86)/microchip/xc32/v1.40/bin/bin/../../lib/gcc/pic32mx/4.8.3/../../../../pic32mx/lib\libc.a(strncpy.o)

.debug_abbrev   0x00000000     0x3546
 *(.debug_abbrev)
 .debug_abbrev  0x00000000       0x28 c:/program files (x86)/microchip/xc32/v1.40/bin/bin/../../lib/gcc/pic32mx/4.8.3/../../../../pic32mx/lib\software-debug-break.o
 .debug_abbrev  0x00000028      0x1e4 build/default/debug/_ext/1361460060/drv_adc_static.o
 .debug_abbrev  0x0000020c      0x20f build/default/debug/_ext/1345626252/drv_usart_static.o
 .debug_abbrev  0x0000041b      0x1f8 build/default/debug/_ext/639803181/sys_clk_static.o
 .debug_abbrev  0x00000613      0x138 build/default/debug/_ext/822048611/sys_ports_static.o
 .debug_abbrev  0x0000074b      0x1dd build/default/debug/_ext/1688732426/system_init.o
 .debug_abbrev  0x00000928       0x12 build/default/debug/_ext/1688732426/system_interrupt_a.o
 .debug_abbrev  0x0000093a       0x91 build/default/debug/_ext/1688732426/system_exceptions.o
 .debug_abbrev  0x000009cb      0x149 build/default/debug/_ext/1688732426/system_tasks.o
 .debug_abbrev  0x00000b14      0x1c5 build/default/debug/_ext/1688732426/system_interrupt.o
 .debug_abbrev  0x00000cd9       0x97 build/default/debug/_ext/1688732426/rtos_hooks.o
 .debug_abbrev  0x00000d70       0xe2 build/default/debug/_ext/1360937237/timerCallback.o
 .debug_abbrev  0x00000e52      0x159 build/default/debug/_ext/1360937237/sender.o
 .debug_abbrev  0x00000fab       0x93 build/default/debug/_ext/1360937237/main.o
 .debug_abbrev  0x0000103e      0x33b build/default/debug/_ext/1360937237/process.o
 .debug_abbrev  0x00001379      0x253 build/default/debug/_ext/1360937237/receive.o
 .debug_abbrev  0x000015cc      0x2ae build/default/debug/_ext/1360937237/send.o
 .debug_abbrev  0x0000187a      0x1fe build/default/debug/_ext/308321468/osal_freertos.o
 .debug_abbrev  0x00001a78      0x2a1 build/default/debug/_ext/482662494/sys_devcon.o
 .debug_abbrev  0x00001d19      0x16d build/default/debug/_ext/482662494/sys_devcon_pic32mx.o
 .debug_abbrev  0x00001e86      0x1ea build/default/debug/_ext/1042686532/sys_int_pic32.o
 .debug_abbrev  0x00002070      0x219 build/default/debug/_ext/826631961/sys_ports.o
 .debug_abbrev  0x00002289      0x13f build/default/debug/_ext/1107379230/heap_1.o
 .debug_abbrev  0x000023c8       0x14 build/default/debug/_ext/1282498059/port_asm.o
 .debug_abbrev  0x000023dc      0x2cf build/default/debug/_ext/1282498059/port.o
 .debug_abbrev  0x000026ab       0xf1 build/default/debug/_ext/373060831/list.o
 .debug_abbrev  0x0000279c       0x1b build/default/debug/_ext/373060831/croutine.o
 .debug_abbrev  0x000027b7      0x2f9 build/default/debug/_ext/373060831/tasks.o
 .debug_abbrev  0x00002ab0      0x29a build/default/debug/_ext/373060831/event_groups.o
 .debug_abbrev  0x00002d4a      0x353 build/default/debug/_ext/373060831/timers.o
 .debug_abbrev  0x0000309d      0x2e0 build/default/debug/_ext/373060831/queue.o
 .debug_abbrev  0x0000337d       0xd9 build/default/debug/_ext/1360937237/debug.o
 .debug_abbrev  0x00003456       0x28 c:/program files (x86)/microchip/xc32/v1.40/bin/bin/../../lib/gcc/pic32mx/4.8.3/../../../../pic32mx/lib\libpic32.a(default-bootstrap-exception-handler.o)
 .debug_abbrev  0x0000347e       0x28 c:/program files (x86)/microchip/xc32/v1.40/bin/bin/../../lib/gcc/pic32mx/4.8.3/../../../../pic32mx/lib\libpic32.a(default-on-reset.o)
 .debug_abbrev  0x000034a6       0x28 c:/program files (x86)/microchip/xc32/v1.40/bin/bin/../../lib/gcc/pic32mx/4.8.3/../../../../pic32mx/lib\libpic32.a(default-on-bootstrap.o)
 .debug_abbrev  0x000034ce       0x28 c:/program files (x86)/microchip/xc32/v1.40/bin/bin/../../lib/gcc/pic32mx/4.8.3/../../../../pic32mx/lib\libpic32.a(defaultinterrupt.o)
 .debug_abbrev  0x000034f6       0x28 c:/program files (x86)/microchip/xc32/v1.40/bin/bin/../../lib/gcc/pic32mx/4.8.3/../../../../pic32mx/lib\libm.a(w_sqrtf.o)
 .debug_abbrev  0x0000351e       0x28 c:/program files (x86)/microchip/xc32/v1.40/bin/bin/../../lib/gcc/pic32mx/4.8.3/../../../../pic32mx/lib\libc.a(strncpy.o)

.debug_line     0x00000000     0x734c
 *(.debug_line)
 .debug_line    0x00000000       0x8a c:/program files (x86)/microchip/xc32/v1.40/bin/bin/../../lib/gcc/pic32mx/4.8.3/../../../../pic32mx/lib\software-debug-break.o
 .debug_line    0x0000008a      0x77f build/default/debug/_ext/1361460060/drv_adc_static.o
 .debug_line    0x00000809      0x62d build/default/debug/_ext/1345626252/drv_usart_static.o
 .debug_line    0x00000e36      0x398 build/default/debug/_ext/639803181/sys_clk_static.o
 .debug_line    0x000011ce      0x3be build/default/debug/_ext/822048611/sys_ports_static.o
 .debug_line    0x0000158c      0x4ed build/default/debug/_ext/1688732426/system_init.o
 .debug_line    0x00001a79       0xa5 build/default/debug/_ext/1688732426/system_interrupt_a.o
 .debug_line    0x00001b1e      0x155 build/default/debug/_ext/1688732426/system_exceptions.o
 .debug_line    0x00001c73      0x36e build/default/debug/_ext/1688732426/system_tasks.o
 .debug_line    0x00001fe1      0x3d4 build/default/debug/_ext/1688732426/system_interrupt.o
 .debug_line    0x000023b5      0x154 build/default/debug/_ext/1688732426/rtos_hooks.o
 .debug_line    0x00002509      0x1bd build/default/debug/_ext/1360937237/timerCallback.o
 .debug_line    0x000026c6      0x290 build/default/debug/_ext/1360937237/sender.o
 .debug_line    0x00002956       0xc9 build/default/debug/_ext/1360937237/main.o
 .debug_line    0x00002a1f      0x7a9 build/default/debug/_ext/1360937237/process.o
 .debug_line    0x000031c8      0x343 build/default/debug/_ext/1360937237/receive.o
 .debug_line    0x0000350b      0x4fe build/default/debug/_ext/1360937237/send.o
 .debug_line    0x00003a09      0x2c4 build/default/debug/_ext/308321468/osal_freertos.o
 .debug_line    0x00003ccd      0x5e7 build/default/debug/_ext/482662494/sys_devcon.o
 .debug_line    0x000042b4      0x48f build/default/debug/_ext/482662494/sys_devcon_pic32mx.o
 .debug_line    0x00004743      0x39e build/default/debug/_ext/1042686532/sys_int_pic32.o
 .debug_line    0x00004ae1      0x88b build/default/debug/_ext/826631961/sys_ports.o
 .debug_line    0x0000536c      0x220 build/default/debug/_ext/1107379230/heap_1.o
 .debug_line    0x0000558c      0x105 build/default/debug/_ext/1282498059/port_asm.o
 .debug_line    0x00005691      0x240 build/default/debug/_ext/1282498059/port.o
 .debug_line    0x000058d1      0x1e5 build/default/debug/_ext/373060831/list.o
 .debug_line    0x00005ab6       0x1d build/default/debug/_ext/373060831/croutine.o
 .debug_line    0x00005ad3      0x84f build/default/debug/_ext/373060831/tasks.o
 .debug_line    0x00006322      0x32a build/default/debug/_ext/373060831/event_groups.o
 .debug_line    0x0000664c      0x396 build/default/debug/_ext/373060831/timers.o
 .debug_line    0x000069e2      0x4ab build/default/debug/_ext/373060831/queue.o
 .debug_line    0x00006e8d      0x19d build/default/debug/_ext/1360937237/debug.o
 .debug_line    0x0000702a       0x97 c:/program files (x86)/microchip/xc32/v1.40/bin/bin/../../lib/gcc/pic32mx/4.8.3/../../../../pic32mx/lib\libpic32.a(default-bootstrap-exception-handler.o)
 .debug_line    0x000070c1       0x84 c:/program files (x86)/microchip/xc32/v1.40/bin/bin/../../lib/gcc/pic32mx/4.8.3/../../../../pic32mx/lib\libpic32.a(default-on-reset.o)
 .debug_line    0x00007145       0x88 c:/program files (x86)/microchip/xc32/v1.40/bin/bin/../../lib/gcc/pic32mx/4.8.3/../../../../pic32mx/lib\libpic32.a(default-on-bootstrap.o)
 .debug_line    0x000071cd       0x96 c:/program files (x86)/microchip/xc32/v1.40/bin/bin/../../lib/gcc/pic32mx/4.8.3/../../../../pic32mx/lib\libpic32.a(defaultinterrupt.o)
 .debug_line    0x00007263       0x78 c:/program files (x86)/microchip/xc32/v1.40/bin/bin/../../lib/gcc/pic32mx/4.8.3/../../../../pic32mx/lib\libm.a(w_sqrtf.o)
 .debug_line    0x000072db        0x0 c:/program files (x86)/microchip/xc32/v1.40/bin/bin/../../lib/gcc/pic32mx/4.8.3/../../../../pic32mx/lib\libm.a(s_lib_ver.o)
 .debug_line    0x000072db        0x0 c:/program files (x86)/microchip/xc32/v1.40/bin/bin/../../lib/gcc/pic32mx/4.8.3/../../../../pic32mx/lib\libc.a(errno.o)
 .debug_line    0x000072db       0x71 c:/program files (x86)/microchip/xc32/v1.40/bin/bin/../../lib/gcc/pic32mx/4.8.3/../../../../pic32mx/lib\libc.a(strncpy.o)

.debug_frame    0x00000000     0x1854
 *(.debug_frame)
 .debug_frame   0x00000000       0x20 c:/program files (x86)/microchip/xc32/v1.40/bin/bin/../../lib/gcc/pic32mx/4.8.3/../../../../pic32mx/lib\software-debug-break.o
 .debug_frame   0x00000020       0xd0 build/default/debug/_ext/1361460060/drv_adc_static.o
 .debug_frame   0x000000f0       0x58 build/default/debug/_ext/1345626252/drv_usart_static.o
 .debug_frame   0x00000148       0x58 build/default/debug/_ext/639803181/sys_clk_static.o
 .debug_frame   0x000001a0       0x20 build/default/debug/_ext/822048611/sys_ports_static.o
 .debug_frame   0x000001c0       0x28 build/default/debug/_ext/1688732426/system_init.o
 .debug_frame   0x000001e8       0x28 build/default/debug/_ext/1688732426/system_exceptions.o
 .debug_frame   0x00000210       0x88 build/default/debug/_ext/1688732426/system_tasks.o
 .debug_frame   0x00000298       0x38 build/default/debug/_ext/1688732426/system_interrupt.o
 .debug_frame   0x000002d0       0x40 build/default/debug/_ext/1688732426/rtos_hooks.o
 .debug_frame   0x00000310       0x58 build/default/debug/_ext/1360937237/timerCallback.o
 .debug_frame   0x00000368       0xa0 build/default/debug/_ext/1360937237/sender.o
 .debug_frame   0x00000408       0x28 build/default/debug/_ext/1360937237/main.o
 .debug_frame   0x00000430      0x228 build/default/debug/_ext/1360937237/process.o
 .debug_frame   0x00000658       0xa8 build/default/debug/_ext/1360937237/receive.o
 .debug_frame   0x00000700       0xcc build/default/debug/_ext/1360937237/send.o
 .debug_frame   0x000007cc      0x150 build/default/debug/_ext/308321468/osal_freertos.o
 .debug_frame   0x0000091c       0xe8 build/default/debug/_ext/482662494/sys_devcon.o
 .debug_frame   0x00000a04       0x28 build/default/debug/_ext/482662494/sys_devcon_pic32mx.o
 .debug_frame   0x00000a2c       0x90 build/default/debug/_ext/1042686532/sys_int_pic32.o
 .debug_frame   0x00000abc      0x1d0 build/default/debug/_ext/826631961/sys_ports.o
 .debug_frame   0x00000c8c       0x5c build/default/debug/_ext/1107379230/heap_1.o
 .debug_frame   0x00000ce8       0xc0 build/default/debug/_ext/1282498059/port.o
 .debug_frame   0x00000da8       0x60 build/default/debug/_ext/373060831/list.o
 .debug_frame   0x00000e08      0x4d4 build/default/debug/_ext/373060831/tasks.o
 .debug_frame   0x000012dc      0x108 build/default/debug/_ext/373060831/event_groups.o
 .debug_frame   0x000013e4      0x134 build/default/debug/_ext/373060831/timers.o
 .debug_frame   0x00001518      0x230 build/default/debug/_ext/373060831/queue.o
 .debug_frame   0x00001748       0x38 build/default/debug/_ext/1360937237/debug.o
 .debug_frame   0x00001780       0x2c c:/program files (x86)/microchip/xc32/v1.40/bin/bin/../../lib/gcc/pic32mx/4.8.3/../../../../pic32mx/lib\libpic32.a(default-bootstrap-exception-handler.o)
 .debug_frame   0x000017ac       0x20 c:/program files (x86)/microchip/xc32/v1.40/bin/bin/../../lib/gcc/pic32mx/4.8.3/../../../../pic32mx/lib\libpic32.a(default-on-reset.o)
 .debug_frame   0x000017cc       0x20 c:/program files (x86)/microchip/xc32/v1.40/bin/bin/../../lib/gcc/pic32mx/4.8.3/../../../../pic32mx/lib\libpic32.a(default-on-bootstrap.o)
 .debug_frame   0x000017ec       0x20 c:/program files (x86)/microchip/xc32/v1.40/bin/bin/../../lib/gcc/pic32mx/4.8.3/../../../../pic32mx/lib\libpic32.a(defaultinterrupt.o)
 .debug_frame   0x0000180c       0x28 c:/program files (x86)/microchip/xc32/v1.40/bin/bin/../../lib/gcc/pic32mx/4.8.3/../../../../pic32mx/lib\libm.a(w_sqrtf.o)
 .debug_frame   0x00001834       0x20 c:/program files (x86)/microchip/xc32/v1.40/bin/bin/../../lib/gcc/pic32mx/4.8.3/../../../../pic32mx/lib\libc.a(strncpy.o)

.debug_str      0x00000000      0x843
 *(.debug_str)
 .debug_str     0x00000000        0x0 c:/program files (x86)/microchip/xc32/v1.40/bin/bin/../../lib/gcc/pic32mx/4.8.3/../../../../pic32mx/lib\software-debug-break.o
 .debug_str     0x00000000       0x8e build/default/debug/_ext/1361460060/drv_adc_static.o
 .debug_str     0x0000008e       0x88 build/default/debug/_ext/1345626252/drv_usart_static.o
 .debug_str     0x00000116       0x39 build/default/debug/_ext/639803181/sys_clk_static.o
 .debug_str     0x0000014f       0x15 build/default/debug/_ext/822048611/sys_ports_static.o
 .debug_str     0x00000164        0xb build/default/debug/_ext/1688732426/system_init.o
 .debug_str     0x0000016f        0x0 build/default/debug/_ext/1688732426/system_exceptions.o
 .debug_str     0x0000016f        0x0 build/default/debug/_ext/1688732426/system_tasks.o
 .debug_str     0x0000016f       0x2f build/default/debug/_ext/1688732426/system_interrupt.o
 .debug_str     0x0000019e        0x9 build/default/debug/_ext/1688732426/rtos_hooks.o
 .debug_str     0x000001a7       0x2c build/default/debug/_ext/1360937237/timerCallback.o
 .debug_str     0x000001d3       0x10 build/default/debug/_ext/1360937237/sender.o
 .debug_str     0x000001e3        0x0 build/default/debug/_ext/1360937237/main.o
 .debug_str     0x000001e3       0x8a build/default/debug/_ext/1360937237/process.o
 .debug_str     0x0000026d       0x1f build/default/debug/_ext/1360937237/receive.o
 .debug_str     0x0000028c        0xd build/default/debug/_ext/1360937237/send.o
 .debug_str     0x00000299       0x40 build/default/debug/_ext/308321468/osal_freertos.o
 .debug_str     0x000002d9       0x16 build/default/debug/_ext/482662494/sys_devcon.o
 .debug_str     0x000002ef        0x6 build/default/debug/_ext/482662494/sys_devcon_pic32mx.o
 .debug_str     0x000002f5       0x2d build/default/debug/_ext/1042686532/sys_int_pic32.o
 .debug_str     0x00000322       0x98 build/default/debug/_ext/826631961/sys_ports.o
 .debug_str     0x000003ba       0x1d build/default/debug/_ext/1107379230/heap_1.o
 .debug_str     0x000003d7       0x37 build/default/debug/_ext/1282498059/port.o
 .debug_str     0x0000040e       0x2b build/default/debug/_ext/373060831/list.o
 .debug_str     0x00000439        0x0 build/default/debug/_ext/373060831/croutine.o
 .debug_str     0x00000439      0x174 build/default/debug/_ext/373060831/tasks.o
 .debug_str     0x000005ad       0xe6 build/default/debug/_ext/373060831/event_groups.o
 .debug_str     0x00000693       0xbf build/default/debug/_ext/373060831/timers.o
 .debug_str     0x00000752       0xf1 build/default/debug/_ext/373060831/queue.o
 .debug_str     0x00000843        0x0 build/default/debug/_ext/1360937237/debug.o
 .debug_str     0x00000843        0x0 c:/program files (x86)/microchip/xc32/v1.40/bin/bin/../../lib/gcc/pic32mx/4.8.3/../../../../pic32mx/lib\libpic32.a(default-bootstrap-exception-handler.o)
 .debug_str     0x00000843        0x0 c:/program files (x86)/microchip/xc32/v1.40/bin/bin/../../lib/gcc/pic32mx/4.8.3/../../../../pic32mx/lib\libpic32.a(default-on-reset.o)
 .debug_str     0x00000843        0x0 c:/program files (x86)/microchip/xc32/v1.40/bin/bin/../../lib/gcc/pic32mx/4.8.3/../../../../pic32mx/lib\libpic32.a(default-on-bootstrap.o)
 .debug_str     0x00000843        0x0 c:/program files (x86)/microchip/xc32/v1.40/bin/bin/../../lib/gcc/pic32mx/4.8.3/../../../../pic32mx/lib\libpic32.a(defaultinterrupt.o)
 .debug_str     0x00000843        0x0 c:/program files (x86)/microchip/xc32/v1.40/bin/bin/../../lib/gcc/pic32mx/4.8.3/../../../../pic32mx/lib\libm.a(w_sqrtf.o)
 .debug_str     0x00000843        0x0 c:/program files (x86)/microchip/xc32/v1.40/bin/bin/../../lib/gcc/pic32mx/4.8.3/../../../../pic32mx/lib\libm.a(s_lib_ver.o)
 .debug_str     0x00000843        0x0 c:/program files (x86)/microchip/xc32/v1.40/bin/bin/../../lib/gcc/pic32mx/4.8.3/../../../../pic32mx/lib\libc.a(errno.o)
 .debug_str     0x00000843        0x0 c:/program files (x86)/microchip/xc32/v1.40/bin/bin/../../lib/gcc/pic32mx/4.8.3/../../../../pic32mx/lib\libc.a(strncpy.o)

.debug_loc      0x00000000     0x7301
 *(.debug_loc)
 .debug_loc     0x00000000      0x111 build/default/debug/_ext/1361460060/drv_adc_static.o
 .debug_loc     0x00000111       0x5a build/default/debug/_ext/1345626252/drv_usart_static.o
 .debug_loc     0x0000016b       0x41 build/default/debug/_ext/639803181/sys_clk_static.o
 .debug_loc     0x000001ac       0x41 build/default/debug/_ext/1688732426/system_init.o
 .debug_loc     0x000001ed       0x20 build/default/debug/_ext/1688732426/system_exceptions.o
 .debug_loc     0x0000020d       0xa0 build/default/debug/_ext/1688732426/system_tasks.o
 .debug_loc     0x000002ad       0x48 build/default/debug/_ext/1688732426/system_interrupt.o
 .debug_loc     0x000002f5       0x74 build/default/debug/_ext/1688732426/rtos_hooks.o
 .debug_loc     0x00000369       0xc3 build/default/debug/_ext/1360937237/timerCallback.o
 .debug_loc     0x0000042c      0x335 build/default/debug/_ext/1360937237/sender.o
 .debug_loc     0x00000761       0x20 build/default/debug/_ext/1360937237/main.o
 .debug_loc     0x00000781     0x114a build/default/debug/_ext/1360937237/process.o
 .debug_loc     0x000018cb      0x1f9 build/default/debug/_ext/1360937237/receive.o
 .debug_loc     0x00001ac4      0x1bc build/default/debug/_ext/1360937237/send.o
 .debug_loc     0x00001c80      0x58c build/default/debug/_ext/308321468/osal_freertos.o
 .debug_loc     0x0000220c      0x150 build/default/debug/_ext/482662494/sys_devcon.o
 .debug_loc     0x0000235c      0x100 build/default/debug/_ext/482662494/sys_devcon_pic32mx.o
 .debug_loc     0x0000245c      0x10d build/default/debug/_ext/1042686532/sys_int_pic32.o
 .debug_loc     0x00002569      0xee1 build/default/debug/_ext/826631961/sys_ports.o
 .debug_loc     0x0000344a       0x69 build/default/debug/_ext/1107379230/heap_1.o
 .debug_loc     0x000034b3      0x1aa build/default/debug/_ext/1282498059/port.o
 .debug_loc     0x0000365d       0x31 build/default/debug/_ext/373060831/list.o
 .debug_loc     0x0000368e     0x195d build/default/debug/_ext/373060831/tasks.o
 .debug_loc     0x00004feb      0xa0a build/default/debug/_ext/373060831/event_groups.o
 .debug_loc     0x000059f5      0x901 build/default/debug/_ext/373060831/timers.o
 .debug_loc     0x000062f6      0xf5e build/default/debug/_ext/373060831/queue.o
 .debug_loc     0x00007254       0xad build/default/debug/_ext/1360937237/debug.o

.debug_macinfo
 *(.debug_macinfo)

.debug_weaknames
 *(.debug_weaknames)

.debug_funcnames
 *(.debug_funcnames)

.debug_typenames
 *(.debug_typenames)

.debug_varnames
 *(.debug_varnames)

.debug_pubtypes
 *(.debug_pubtypes)

.debug_ranges   0x00000000      0xbc8
 *(.debug_ranges)
 .debug_ranges  0x00000000       0x10 c:/program files (x86)/microchip/xc32/v1.40/bin/bin/../../lib/gcc/pic32mx/4.8.3/../../../../pic32mx/lib\software-debug-break.o
 .debug_ranges  0x00000010       0x68 build/default/debug/_ext/1361460060/drv_adc_static.o
 .debug_ranges  0x00000078       0x28 build/default/debug/_ext/1345626252/drv_usart_static.o
 .debug_ranges  0x000000a0       0x28 build/default/debug/_ext/639803181/sys_clk_static.o
 .debug_ranges  0x000000c8       0x10 build/default/debug/_ext/822048611/sys_ports_static.o
 .debug_ranges  0x000000d8       0x10 build/default/debug/_ext/1688732426/system_init.o
 .debug_ranges  0x000000e8       0x30 build/default/debug/_ext/1688732426/system_interrupt_a.o
 .debug_ranges  0x00000118       0x10 build/default/debug/_ext/1688732426/system_exceptions.o
 .debug_ranges  0x00000128       0x30 build/default/debug/_ext/1688732426/system_tasks.o
 .debug_ranges  0x00000158       0x18 build/default/debug/_ext/1688732426/system_interrupt.o
 .debug_ranges  0x00000170       0x18 build/default/debug/_ext/1688732426/rtos_hooks.o
 .debug_ranges  0x00000188       0x20 build/default/debug/_ext/1360937237/timerCallback.o
 .debug_ranges  0x000001a8       0x30 build/default/debug/_ext/1360937237/sender.o
 .debug_ranges  0x000001d8       0x10 build/default/debug/_ext/1360937237/main.o
 .debug_ranges  0x000001e8      0x230 build/default/debug/_ext/1360937237/process.o
 .debug_ranges  0x00000418       0x48 build/default/debug/_ext/1360937237/receive.o
 .debug_ranges  0x00000460       0x58 build/default/debug/_ext/1360937237/send.o
 .debug_ranges  0x000004b8       0x78 build/default/debug/_ext/308321468/osal_freertos.o
 .debug_ranges  0x00000530       0x68 build/default/debug/_ext/482662494/sys_devcon.o
 .debug_ranges  0x00000598       0x10 build/default/debug/_ext/482662494/sys_devcon_pic32mx.o
 .debug_ranges  0x000005a8       0x50 build/default/debug/_ext/1042686532/sys_int_pic32.o
 .debug_ranges  0x000005f8       0xe8 build/default/debug/_ext/826631961/sys_ports.o
 .debug_ranges  0x000006e0       0x28 build/default/debug/_ext/1107379230/heap_1.o
 .debug_ranges  0x00000708       0x48 build/default/debug/_ext/1282498059/port.o
 .debug_ranges  0x00000750       0x30 build/default/debug/_ext/373060831/list.o
 .debug_ranges  0x00000780      0x1a8 build/default/debug/_ext/373060831/tasks.o
 .debug_ranges  0x00000928       0x98 build/default/debug/_ext/373060831/event_groups.o
 .debug_ranges  0x000009c0       0xe8 build/default/debug/_ext/373060831/timers.o
 .debug_ranges  0x00000aa8       0xa8 build/default/debug/_ext/373060831/queue.o
 .debug_ranges  0x00000b50       0x18 build/default/debug/_ext/1360937237/debug.o
 .debug_ranges  0x00000b68       0x10 c:/program files (x86)/microchip/xc32/v1.40/bin/bin/../../lib/gcc/pic32mx/4.8.3/../../../../pic32mx/lib\libpic32.a(default-bootstrap-exception-handler.o)
 .debug_ranges  0x00000b78       0x10 c:/program files (x86)/microchip/xc32/v1.40/bin/bin/../../lib/gcc/pic32mx/4.8.3/../../../../pic32mx/lib\libpic32.a(default-on-reset.o)
 .debug_ranges  0x00000b88       0x10 c:/program files (x86)/microchip/xc32/v1.40/bin/bin/../../lib/gcc/pic32mx/4.8.3/../../../../pic32mx/lib\libpic32.a(default-on-bootstrap.o)
 .debug_ranges  0x00000b98       0x10 c:/program files (x86)/microchip/xc32/v1.40/bin/bin/../../lib/gcc/pic32mx/4.8.3/../../../../pic32mx/lib\libpic32.a(defaultinterrupt.o)
 .debug_ranges  0x00000ba8       0x10 c:/program files (x86)/microchip/xc32/v1.40/bin/bin/../../lib/gcc/pic32mx/4.8.3/../../../../pic32mx/lib\libm.a(w_sqrtf.o)
 .debug_ranges  0x00000bb8       0x10 c:/program files (x86)/microchip/xc32/v1.40/bin/bin/../../lib/gcc/pic32mx/4.8.3/../../../../pic32mx/lib\libc.a(strncpy.o)

.gnu.attributes
                0x00000000       0x10
 *(.gnu.attributes)
 .gnu.attributes
                0x00000000       0x10 c:/program files (x86)/microchip/xc32/v1.40/bin/bin/../../lib/gcc/pic32mx/4.8.3/../../../../pic32mx/lib\software-debug-break.o
 .gnu.attributes
                0x00000010       0x10 build/default/debug/_ext/1361460060/drv_adc_static.o
 .gnu.attributes
                0x00000020       0x10 build/default/debug/_ext/1345626252/drv_usart_static.o
 .gnu.attributes
                0x00000030       0x10 build/default/debug/_ext/639803181/sys_clk_static.o
 .gnu.attributes
                0x00000040       0x10 build/default/debug/_ext/822048611/sys_ports_static.o
 .gnu.attributes
                0x00000050       0x10 build/default/debug/_ext/1688732426/system_init.o
 .gnu.attributes
                0x00000060       0x10 build/default/debug/_ext/1688732426/system_exceptions.o
 .gnu.attributes
                0x00000070       0x10 build/default/debug/_ext/1688732426/system_tasks.o
 .gnu.attributes
                0x00000080       0x10 build/default/debug/_ext/1688732426/system_interrupt.o
 .gnu.attributes
                0x00000090       0x10 build/default/debug/_ext/1688732426/rtos_hooks.o
 .gnu.attributes
                0x000000a0       0x10 build/default/debug/_ext/1360937237/timerCallback.o
 .gnu.attributes
                0x000000b0       0x10 build/default/debug/_ext/1360937237/sender.o
 .gnu.attributes
                0x000000c0       0x10 build/default/debug/_ext/1360937237/main.o
 .gnu.attributes
                0x000000d0       0x10 build/default/debug/_ext/1360937237/process.o
 .gnu.attributes
                0x000000e0       0x10 build/default/debug/_ext/1360937237/receive.o
 .gnu.attributes
                0x000000f0       0x10 build/default/debug/_ext/1360937237/send.o
 .gnu.attributes
                0x00000100       0x10 build/default/debug/_ext/308321468/osal_freertos.o
 .gnu.attributes
                0x00000110       0x10 build/default/debug/_ext/482662494/sys_devcon.o
 .gnu.attributes
                0x00000120       0x10 build/default/debug/_ext/482662494/sys_devcon_pic32mx.o
 .gnu.attributes
                0x00000130       0x10 build/default/debug/_ext/1042686532/sys_int_pic32.o
 .gnu.attributes
                0x00000140       0x10 build/default/debug/_ext/826631961/sys_ports.o
 .gnu.attributes
                0x00000150       0x10 build/default/debug/_ext/1107379230/heap_1.o
 .gnu.attributes
                0x00000160       0x10 build/default/debug/_ext/1282498059/port.o
 .gnu.attributes
                0x00000170       0x10 build/default/debug/_ext/373060831/list.o
 .gnu.attributes
                0x00000180       0x10 build/default/debug/_ext/373060831/croutine.o
 .gnu.attributes
                0x00000190       0x10 build/default/debug/_ext/373060831/tasks.o
 .gnu.attributes
                0x000001a0       0x10 build/default/debug/_ext/373060831/event_groups.o
 .gnu.attributes
                0x000001b0       0x10 build/default/debug/_ext/373060831/timers.o
 .gnu.attributes
                0x000001c0       0x10 build/default/debug/_ext/373060831/queue.o
 .gnu.attributes
                0x000001d0       0x10 build/default/debug/_ext/1360937237/debug.o
 .gnu.attributes
                0x000001e0       0x10 c:/program files (x86)/microchip/xc32/v1.40/bin/bin/../../lib/gcc/pic32mx/4.8.3/../../../../pic32mx/lib\libpic32.a(default-bootstrap-exception-handler.o)
 .gnu.attributes
                0x000001f0       0x10 c:/program files (x86)/microchip/xc32/v1.40/bin/bin/../../lib/gcc/pic32mx/4.8.3/../../../../pic32mx/lib\libpic32.a(default-on-reset.o)
 .gnu.attributes
                0x00000200       0x10 c:/program files (x86)/microchip/xc32/v1.40/bin/bin/../../lib/gcc/pic32mx/4.8.3/../../../../pic32mx/lib\libpic32.a(default-on-bootstrap.o)
 .gnu.attributes
                0x00000210       0x10 c:/program files (x86)/microchip/xc32/v1.40/bin/bin/../../lib/gcc/pic32mx/4.8.3/../../../../pic32mx/lib\libpic32.a(defaultinterrupt.o)
 .gnu.attributes
                0x00000220       0x10 c:/program files (x86)/microchip/xc32/v1.40/bin/bin/../../lib/gcc/pic32mx/4.8.3/../../../../pic32mx/lib\libm.a(w_sqrtf.o)
 .gnu.attributes
                0x00000230       0x10 c:/program files (x86)/microchip/xc32/v1.40/bin/bin/../../lib/gcc/pic32mx/4.8.3/../../../../pic32mx/lib\libm.a(s_lib_ver.o)
 .gnu.attributes
                0x00000240       0x10 c:/program files (x86)/microchip/xc32/v1.40/bin/bin/../../lib/gcc/pic32mx/4.8.3/../../../../pic32mx/lib\libc.a(errno.o)
 .gnu.attributes
                0x00000250       0x10 c:/program files (x86)/microchip/xc32/v1.40/bin/bin/../../lib/gcc/pic32mx/4.8.3/../../../../pic32mx/lib\libc.a(strncpy.o)
LOAD c:/program files (x86)/microchip/xc32/v1.40/bin/bin/../../lib/gcc/pic32mx/4.8.3\libgcc.a
START GROUP
LOAD c:/program files (x86)/microchip/xc32/v1.40/bin/bin/../../lib/gcc/pic32mx/4.8.3/../../../../pic32mx/lib\libpic32.a
LOAD c:/program files (x86)/microchip/xc32/v1.40/bin/bin/../../lib/gcc/pic32mx/4.8.3/../../../../pic32mx/lib\libdebug.a
LOAD c:/program files (x86)/microchip/xc32/v1.40/bin/bin/../../lib/gcc/pic32mx/4.8.3/../../../../pic32mx/lib\libpic32.a
LOAD c:/program files (x86)/microchip/xc32/v1.40/bin/bin/../../lib/gcc/pic32mx/4.8.3/../../../../pic32mx/lib\libm.a
LOAD c:/program files (x86)/microchip/xc32/v1.40/bin/bin/../../lib/gcc/pic32mx/4.8.3/../../../../pic32mx/lib\libe.a
LOAD c:/program files (x86)/microchip/xc32/v1.40/bin/bin/../../lib/gcc/pic32mx/4.8.3/../../../../pic32mx/lib\libdsp.a
LOAD c:/program files (x86)/microchip/xc32/v1.40/bin/bin/../../lib/gcc/pic32mx/4.8.3\libgcc.a
LOAD c:/program files (x86)/microchip/xc32/v1.40/bin/bin/../../lib/gcc/pic32mx/4.8.3/../../../../pic32mx/lib\libc.a
LOAD c:/program files (x86)/microchip/xc32/v1.40/bin/bin/../../lib/gcc/pic32mx/4.8.3/../../../../pic32mx/lib\libpic32.a
END GROUP
LOAD c:/program files (x86)/microchip/xc32/v1.40/bin/bin/../../lib/gcc/pic32mx/4.8.3\libgcc.a
OUTPUT(dist/default/debug/coordinator.X.debug.elf elf32-tradlittlemips)
LOAD stack
LOAD data_init

.reginfo        0x00000000       0x18
 .reginfo       0x00000000       0x18 c:/program files (x86)/microchip/xc32/v1.40/bin/bin/../../lib/gcc/pic32mx/4.8.3/../../../../pic32mx/lib/./proc/32MX795F512L/crt0_mips32r2.o

.stack          0xa0019e80      0x400
 .stack         0xa0019e80      0x400 stack

.bss            0xa00006a8    0x19640
 .bss           0xa00006a8    0x19000 build/default/debug/_ext/1107379230/heap_1.o
 .bss           0xa00196a8      0x640 build/default/debug/_ext/1282498059/port.o
                0xa00196a8                xISRStack

.data           0xa0019ce8      0x14c
 .data          0xa0019ce8      0x100 c:/program files (x86)/microchip/xc32/v1.40/bin/bin/../../lib/gcc/pic32mx/4.8.3/../../../../pic32mx/lib\libm.a(fpexatan.o)
 .data          0xa0019de8       0x4c build/default/debug/_ext/1688732426/system_exceptions.o

.bss            0xa0019e34       0x28
 .bss           0xa0019e34       0x28 build/default/debug/_ext/373060831/timers.o

.data.math_errhandling_flag
                0xa0019e5c        0x4
 .data.math_errhandling_flag
                0xa0019e5c        0x4 c:/program files (x86)/microchip/xc32/v1.40/bin/bin/../../lib/gcc/pic32mx/4.8.3/../../../../pic32mx/lib\libm.a(s_lib_ver.o)
                0xa0019e5c                math_errhandling

.bss.errno      0xa0019e60        0x4
 .bss.errno     0xa0019e60        0x4 c:/program files (x86)/microchip/xc32/v1.40/bin/bin/../../lib/gcc/pic32mx/4.8.3/../../../../pic32mx/lib\libc.a(errno.o)
                0xa0019e60                errno

.text.PROCESS_Tasks
                0x9d000000      0xec4
 .text.PROCESS_Tasks
                0x9d000000      0xec4 build/default/debug/_ext/1360937237/process.o
                0x9d000000                PROCESS_Tasks

.text.distanceToObstacle
                0x9d000ec4      0x59c
 .text.distanceToObstacle
                0x9d000ec4      0x59c build/default/debug/_ext/1360937237/process.o
                0x9d000ec4                distanceToObstacle

.text           0x9d001460      0x454
 .text          0x9d001460      0x454 build/default/debug/_ext/1282498059/port_asm.o
                0x9d001460                vPortTickInterruptHandler
                0x9d00160c                vPortStartFirstTask
                0x9d0016d4                vPortYieldISR

.text.libm      0x9d0018b4      0x350
 .text.libm     0x9d0018b4      0x350 c:/program files (x86)/microchip/xc32/v1.40/bin/bin/../../lib/gcc/pic32mx/4.8.3/../../../../pic32mx/lib\libm.a(fpexatan.o)
                0x9d0018b4                fpexatan

.text.fpsubadd  0x9d001c04      0x278
 .text.fpsubadd
                0x9d001c04      0x278 c:/program files (x86)/microchip/xc32/v1.40/bin/bin/../../lib/gcc/pic32mx/4.8.3/../../../../pic32mx/lib\libm.a(fp32subadd.o)
                0x9d001c04                __subsf3
                0x9d001c04                fpsub
                0x9d001c0c                __addsf3
                0x9d001c0c                fpadd

.text.processFindRoverData
                0x9d001e7c      0x264
 .text.processFindRoverData
                0x9d001e7c      0x264 build/default/debug/_ext/1360937237/process.o
                0x9d001e7c                processFindRoverData

.text.prvTimerTask
                0x9d0020e0      0x264
 .text.prvTimerTask
                0x9d0020e0      0x264 build/default/debug/_ext/373060831/timers.o

.text.xQueueGenericReceive
                0x9d002344      0x24c
 .text.xQueueGenericReceive
                0x9d002344      0x24c build/default/debug/_ext/373060831/queue.o
                0x9d002344                xQueueGenericReceive

.dinit          0x9d002590      0x240
 .dinit         0x9d002590      0x240 data_init

.text.fp32div   0x9d0027d0      0x230
 .text.fp32div  0x9d0027d0      0x230 c:/program files (x86)/microchip/xc32/v1.40/bin/bin/../../lib/gcc/pic32mx/4.8.3/../../../../pic32mx/lib\libm.a(fp32div.o)
                0x9d0027d0                fpdiv
                0x9d0027d0                __divsf3

.text.xQueueGenericSend
                0x9d002a00      0x208
 .text.xQueueGenericSend
                0x9d002a00      0x208 build/default/debug/_ext/373060831/queue.o
                0x9d002a00                xQueueGenericSend

.text.RECEIVE_Initialize
                0x9d002c08      0x1cc
 .text.RECEIVE_Initialize
                0x9d002c08      0x1cc build/default/debug/_ext/1360937237/receive.o
                0x9d002c08                RECEIVE_Initialize

.text.xTaskGenericCreate
                0x9d002dd4      0x1c0
 .text.xTaskGenericCreate
                0x9d002dd4      0x1c0 build/default/debug/_ext/373060831/tasks.o
                0x9d002dd4                xTaskGenericCreate

.text.fp32mul   0x9d002f94      0x1bc
 .text.fp32mul  0x9d002f94      0x1bc c:/program files (x86)/microchip/xc32/v1.40/bin/bin/../../lib/gcc/pic32mx/4.8.3/../../../../pic32mx/lib\libm.a(fp32mul.o)
                0x9d002f94                __mulsf3
                0x9d002f94                fpmul

.DrvAdc_vector_text
                0x9d003150      0x1b4
 .DrvAdc_vector_text
                0x9d003150      0x1b4 build/default/debug/_ext/1688732426/system_interrupt_a.o

.DrvUsartInstance0_vector_text
                0x9d003304      0x1b4
 .DrvUsartInstance0_vector_text
                0x9d003304      0x1b4 build/default/debug/_ext/1688732426/system_interrupt_a.o

.text.processMoveRoverTurn
                0x9d0034b8      0x1ac
 .text.processMoveRoverTurn
                0x9d0034b8      0x1ac build/default/debug/_ext/1360937237/process.o
                0x9d0034b8                processMoveRoverTurn

.text.libm      0x9d003664      0x1ac
 .text.libm     0x9d003664      0x1ac c:/program files (x86)/microchip/xc32/v1.40/bin/bin/../../lib/gcc/pic32mx/4.8.3/../../../../pic32mx/lib\libm.a(fpsqrt32.o)
                0x9d003664                __mchp_sqrtf
                0x9d003664                fpsqrt

.text.xTaskIncrementTick
                0x9d003810      0x19c
 .text.xTaskIncrementTick
                0x9d003810      0x19c build/default/debug/_ext/373060831/tasks.o
                0x9d003810                xTaskIncrementTick

.text.atan2_custom
                0x9d0039ac      0x190
 .text.atan2_custom
                0x9d0039ac      0x190 build/default/debug/_ext/1360937237/process.o
                0x9d0039ac                atan2_custom

.text           0x9d003b3c      0x168
 .text          0x9d003b3c      0x168 c:/program files (x86)/microchip/xc32/v1.40/bin/bin/../../lib/gcc/pic32mx/4.8.3/../../../../pic32mx/lib\libpic32.a(memcpy.o)
                0x9d003b3c                memcpy

.text.processMapDataMsg
                0x9d003ca4      0x164
 .text.processMapDataMsg
                0x9d003ca4      0x164 build/default/debug/_ext/1360937237/process.o
                0x9d003ca4                processMapDataMsg

.text.xTaskResumeAll
                0x9d003e08      0x154
 .text.xTaskResumeAll
                0x9d003e08      0x154 build/default/debug/_ext/373060831/tasks.o
                0x9d003e08                xTaskResumeAll

.text.processMoveRoverForward
                0x9d003f5c      0x12c
 .text.processMoveRoverForward
                0x9d003f5c      0x12c build/default/debug/_ext/1360937237/process.o
                0x9d003f5c                processMoveRoverForward

.text.vTaskPriorityInherit
                0x9d004088      0x12c
 .text.vTaskPriorityInherit
                0x9d004088      0x12c build/default/debug/_ext/373060831/tasks.o
                0x9d004088                vTaskPriorityInherit

.text.DIVERT_MoveRoverForward
                0x9d0041b4      0x120
 .text.DIVERT_MoveRoverForward
                0x9d0041b4      0x120 build/default/debug/_ext/1360937237/process.o
                0x9d0041b4                DIVERT_MoveRoverForward

.text.SEND_Initialize
                0x9d0042d4      0x120
 .text.SEND_Initialize
                0x9d0042d4      0x120 build/default/debug/_ext/1360937237/send.o
                0x9d0042d4                SEND_Initialize

.text.DRV_ADC_Initialize
                0x9d0043f4      0x11c
 .text.DRV_ADC_Initialize
                0x9d0043f4      0x11c build/default/debug/_ext/1361460060/drv_adc_static.o
                0x9d0043f4                DRV_ADC_Initialize

.text.vTaskSwitchContext
                0x9d004510      0x11c
 .text.vTaskSwitchContext
                0x9d004510      0x11c build/default/debug/_ext/373060831/tasks.o
                0x9d004510                vTaskSwitchContext

.text.DRV_USART0_Initialize
                0x9d00462c      0x110
 .text.DRV_USART0_Initialize
                0x9d00462c      0x110 build/default/debug/_ext/1345626252/drv_usart_static.o
                0x9d00462c                DRV_USART0_Initialize

.text.RECEIVE_Tasks
                0x9d00473c      0x10c
 .text.RECEIVE_Tasks
                0x9d00473c      0x10c build/default/debug/_ext/1360937237/receive.o
                0x9d00473c                RECEIVE_Tasks

.text.prvSampleTimeNow
                0x9d004848      0x104
 .text.prvSampleTimeNow
                0x9d004848      0x104 build/default/debug/_ext/373060831/timers.o

.text.prvUnlockQueue
                0x9d00494c      0x104
 .text.prvUnlockQueue
                0x9d00494c      0x104 build/default/debug/_ext/373060831/queue.o

.text.prvCopyDataToQueue
                0x9d004a50       0xfc
 .text.prvCopyDataToQueue
                0x9d004a50       0xfc build/default/debug/_ext/373060831/queue.o

.text.libm      0x9d004b4c       0xfc
 .text.libm     0x9d004b4c       0xfc c:/program files (x86)/microchip/xc32/v1.40/bin/bin/../../lib/gcc/pic32mx/4.8.3/../../../../pic32mx/lib\libm.a(fpexsqrt32.o)
                0x9d004b4c                fpexsqrt

.text.xTaskPriorityDisinherit
                0x9d004c48       0xf8
 .text.xTaskPriorityDisinherit
                0x9d004c48       0xf8 build/default/debug/_ext/373060831/tasks.o
                0x9d004c48                xTaskPriorityDisinherit

.text.xQueueGenericSendFromISR
                0x9d004d40       0xe8
 .text.xQueueGenericSendFromISR
                0x9d004d40       0xe8 build/default/debug/_ext/373060831/queue.o
                0x9d004d40                xQueueGenericSendFromISR

.rodata         0x9d004e28       0xdc
 .rodata        0x9d004e28       0xdc build/default/debug/_ext/1688732426/system_exceptions.o

.text.SYS_DEVCON_PerformanceConfig
                0x9d004f04       0xdc
 .text.SYS_DEVCON_PerformanceConfig
                0x9d004f04       0xdc build/default/debug/_ext/482662494/sys_devcon_pic32mx.o
                0x9d004f04                SYS_DEVCON_PerformanceConfig

.text.general_exception
                0x9d004fe0       0xdc
 .text.general_exception
                0x9d004fe0       0xdc c:/program files (x86)/microchip/xc32/v1.40/bin/bin/../../lib/gcc/pic32mx/4.8.3/../../../../pic32mx/lib\libpic32.a(general-exception.o)
                0x9d004fe0                _general_exception_context

.text.SYS_Tasks
                0x9d0050bc       0xd8
 .text.SYS_Tasks
                0x9d0050bc       0xd8 build/default/debug/_ext/1688732426/system_tasks.o
                0x9d0050bc                SYS_Tasks

.text.xQueueReceiveFromISR
                0x9d005194       0xd4
 .text.xQueueReceiveFromISR
                0x9d005194       0xd4 build/default/debug/_ext/373060831/queue.o
                0x9d005194                xQueueReceiveFromISR

.text.PROCESS_Initialize
                0x9d005268       0xc4
 .text.PROCESS_Initialize
                0x9d005268       0xc4 build/default/debug/_ext/1360937237/process.o
                0x9d005268                PROCESS_Initialize

.text.xQueueGenericReset
                0x9d00532c       0xc4
 .text.xQueueGenericReset
                0x9d00532c       0xc4 build/default/debug/_ext/373060831/queue.o
                0x9d00532c                xQueueGenericReset

.text.pvPortMalloc
                0x9d0053f0       0xc0
 .text.pvPortMalloc
                0x9d0053f0       0xc0 build/default/debug/_ext/1107379230/heap_1.o
                0x9d0053f0                pvPortMalloc

.text.xTaskRemoveFromEventList
                0x9d0054b0       0xbc
 .text.xTaskRemoveFromEventList
                0x9d0054b0       0xbc build/default/debug/_ext/373060831/tasks.o
                0x9d0054b0                xTaskRemoveFromEventList

.text.prvInitialiseTCBVariables
                0x9d00556c       0xb4
 .text.prvInitialiseTCBVariables
                0x9d00556c       0xb4 build/default/debug/_ext/373060831/tasks.o
                0x9d00556c                prvInitialiseTCBVariables

.text.sendDataToTransmitQ
                0x9d005620       0xb0
 .text.sendDataToTransmitQ
                0x9d005620       0xb0 build/default/debug/_ext/1360937237/send.o
                0x9d005620                sendDataToTransmitQ

.text           0x9d0056d0       0xa8
 .text          0x9d0056d0       0xa8 c:/program files (x86)/microchip/xc32/v1.40/bin/bin/../../lib/gcc/pic32mx/4.8.3/../../../../pic32mx/lib\libpic32.a(memset.o)
                0x9d0056d0                memset

.text.distanceBetweenPoints
                0x9d005778       0xa4
 .text.distanceBetweenPoints
                0x9d005778       0xa4 build/default/debug/_ext/1360937237/process.o
                0x9d005778                distanceBetweenPoints

.text.xTaskCheckForTimeOut
                0x9d00581c       0xa0
 .text.xTaskCheckForTimeOut
                0x9d00581c       0xa0 build/default/debug/_ext/373060831/tasks.o
                0x9d00581c                xTaskCheckForTimeOut

.text.fpatan    0x9d0058bc       0xa0
 .text.fpatan   0x9d0058bc       0xa0 c:/program files (x86)/microchip/xc32/v1.40/bin/bin/../../lib/gcc/pic32mx/4.8.3/../../../../pic32mx/lib\libm.a(fpatan.o)
                0x9d0058bc                atanf
                0x9d0058bc                fpatan

.text.fpcmp     0x9d00595c       0x9c
 .text.fpcmp    0x9d00595c       0x9c c:/program files (x86)/microchip/xc32/v1.40/bin/bin/../../lib/gcc/pic32mx/4.8.3/../../../../pic32mx/lib\libm.a(fpcmp.o)
                0x9d00595c                __eqsf2
                0x9d00595c                __lesf2
                0x9d00595c                __gtsf2
                0x9d00595c                __nesf2
                0x9d00595c                fpcmp
                0x9d00595c                __gesf2
                0x9d00595c                __ltsf2

.text.xTimerCreate
                0x9d0059f8       0x98
 .text.xTimerCreate
                0x9d0059f8       0x98 build/default/debug/_ext/373060831/timers.o
                0x9d0059f8                xTimerCreate

.text           0x9d005a90       0x98
 .text          0x9d005a90       0x98 c:/program files (x86)/microchip/xc32/v1.40/bin/bin/../../lib/gcc/pic32mx/4.8.3/../../../../pic32mx/lib\libpic32.a(memcmp.o)
                0x9d005a90                memcmp

.text.vTaskPlaceOnEventList
                0x9d005b28       0x94
 .text.vTaskPlaceOnEventList
                0x9d005b28       0x94 build/default/debug/_ext/373060831/tasks.o
                0x9d005b28                vTaskPlaceOnEventList

.text.xTimerGenericCommand
                0x9d005bbc       0x94
 .text.xTimerGenericCommand
                0x9d005bbc       0x94 build/default/debug/_ext/373060831/timers.o
                0x9d005bbc                xTimerGenericCommand

.text.xQueueGenericCreate
                0x9d005c50       0x94
 .text.xQueueGenericCreate
                0x9d005c50       0x94 build/default/debug/_ext/373060831/queue.o
                0x9d005c50                xQueueGenericCreate

.text.receiveDataFromISR
                0x9d005ce4       0x90
 .text.receiveDataFromISR
                0x9d005ce4       0x90 build/default/debug/_ext/1360937237/send.o
                0x9d005ce4                receiveDataFromISR

.text.vTaskStartScheduler
                0x9d005d74       0x90
 .text.vTaskStartScheduler
                0x9d005d74       0x90 build/default/debug/_ext/373060831/tasks.o
                0x9d005d74                vTaskStartScheduler

.text.prvInitialiseTaskLists
                0x9d005e04       0x90
 .text.prvInitialiseTaskLists
                0x9d005e04       0x90 build/default/debug/_ext/373060831/tasks.o
                0x9d005e04                prvInitialiseTaskLists

.text.prvCheckTasksWaitingTermination
                0x9d005e94       0x90
 .text.prvCheckTasksWaitingTermination
                0x9d005e94       0x90 build/default/debug/_ext/373060831/tasks.o
                0x9d005e94                prvCheckTasksWaitingTermination

.text.SYS_PORTS_Initialize
                0x9d005f24       0x88
 .text.SYS_PORTS_Initialize
                0x9d005f24       0x88 build/default/debug/_ext/822048611/sys_ports_static.o
                0x9d005f24                SYS_PORTS_Initialize

.text.putMsgOnProcessQueue
                0x9d005fac       0x88
 .text.putMsgOnProcessQueue
                0x9d005fac       0x88 build/default/debug/_ext/1360937237/process.o
                0x9d005fac                putMsgOnProcessQueue

.text.processUpdateMap
                0x9d006034       0x88
 .text.processUpdateMap
                0x9d006034       0x88 build/default/debug/_ext/1360937237/process.o
                0x9d006034                processUpdateMap

.text.putMsgOnSendQueue
                0x9d0060bc       0x88
 .text.putMsgOnSendQueue
                0x9d0060bc       0x88 build/default/debug/_ext/1360937237/send.o
                0x9d0060bc                putMsgOnSendQueue

.text.prvAllocateTCBAndStack
                0x9d006144       0x84
 .text.prvAllocateTCBAndStack
                0x9d006144       0x84 build/default/debug/_ext/373060831/tasks.o
                0x9d006144                prvAllocateTCBAndStack

.text.fptoli    0x9d0061c8       0x80
 .text.fptoli   0x9d0061c8       0x80 c:/program files (x86)/microchip/xc32/v1.40/bin/bin/../../lib/gcc/pic32mx/4.8.3/../../../../pic32mx/lib\libm.a(fptoli.o)
                0x9d0061c8                fptoli
                0x9d0061c8                fptosi
                0x9d0061c8                __fixsfsi

.text.SYS_Initialize
                0x9d006248       0x7c
 .text.SYS_Initialize
                0x9d006248       0x7c build/default/debug/_ext/1688732426/system_init.o
                0x9d006248                SYS_Initialize

.text.IntHandlerDrvUsartInstance0
                0x9d0062c4       0x7c
 .text.IntHandlerDrvUsartInstance0
                0x9d0062c4       0x7c build/default/debug/_ext/1688732426/system_interrupt.o
                0x9d0062c4                IntHandlerDrvUsartInstance0

.text.prvInsertTimerInActiveList
                0x9d006340       0x74
 .text.prvInsertTimerInActiveList
                0x9d006340       0x74 build/default/debug/_ext/373060831/timers.o

.text.prvCheckForValidListAndQueue
                0x9d0063b4       0x74
 .text.prvCheckForValidListAndQueue
                0x9d0063b4       0x74 build/default/debug/_ext/373060831/timers.o

.text.vQueueWaitForMessageRestricted
                0x9d006428       0x74
 .text.vQueueWaitForMessageRestricted
                0x9d006428       0x74 build/default/debug/_ext/373060831/queue.o
                0x9d006428                vQueueWaitForMessageRestricted

.text.strncpy   0x9d00649c       0x74
 .text.strncpy  0x9d00649c       0x74 c:/program files (x86)/microchip/xc32/v1.40/bin/bin/../../lib/gcc/pic32mx/4.8.3/../../../../pic32mx/lib\libc.a(strncpy.o)
                0x9d00649c                strncpy

.text.prvAddCurrentTaskToDelayedList
                0x9d006510       0x70
 .text.prvAddCurrentTaskToDelayedList
                0x9d006510       0x70 build/default/debug/_ext/373060831/tasks.o
                0x9d006510                prvAddCurrentTaskToDelayedList

.text.vApplicationSetupTickTimerInterrupt
                0x9d006580       0x6c
 .text.vApplicationSetupTickTimerInterrupt
                0x9d006580       0x6c build/default/debug/_ext/1282498059/port.o
                0x9d006580                vApplicationSetupTickTimerInterrupt

.text.vTaskPlaceOnEventListRestricted
                0x9d0065ec       0x6c
 .text.vTaskPlaceOnEventListRestricted
                0x9d0065ec       0x6c build/default/debug/_ext/373060831/tasks.o
                0x9d0065ec                vTaskPlaceOnEventListRestricted

.text.vTaskExitCritical
                0x9d006658       0x68
 .text.vTaskExitCritical
                0x9d006658       0x68 build/default/debug/_ext/373060831/tasks.o
                0x9d006658                vTaskExitCritical

.text.sqrtf     0x9d0066c0       0x68
 .text.sqrtf    0x9d0066c0       0x68 c:/program files (x86)/microchip/xc32/v1.40/bin/bin/../../lib/gcc/pic32mx/4.8.3/../../../../pic32mx/lib\libm.a(w_sqrtf.o)
                0x9d0066c0                sqrtf

.text.processTransferMapDataBuffers
                0x9d006728       0x60
 .text.processTransferMapDataBuffers
                0x9d006728       0x60 build/default/debug/_ext/1360937237/process.o
                0x9d006728                processTransferMapDataBuffers

.text.processSendSensorRequest
                0x9d006788       0x60
 .text.processSendSensorRequest
                0x9d006788       0x60 build/default/debug/_ext/1360937237/process.o
                0x9d006788                processSendSensorRequest

.text.xTimerCreateTimerTask
                0x9d0067e8       0x60
 .text.xTimerCreateTimerTask
                0x9d0067e8       0x60 build/default/debug/_ext/373060831/timers.o
                0x9d0067e8                xTimerCreateTimerTask

.text.sitofp    0x9d006848       0x60
 .text.sitofp   0x9d006848       0x60 c:/program files (x86)/microchip/xc32/v1.40/bin/bin/../../lib/gcc/pic32mx/4.8.3/../../../../pic32mx/lib\libm.a(sitofp.o)
                0x9d006848                sitofp
                0x9d006848                litofp
                0x9d006848                __floatsisf

.text.xPortStartScheduler
                0x9d0068a8       0x5c
 .text.xPortStartScheduler
                0x9d0068a8       0x5c build/default/debug/_ext/1282498059/port.o
                0x9d0068a8                xPortStartScheduler

.text.vListInsert
                0x9d006904       0x5c
 .text.vListInsert
                0x9d006904       0x5c build/default/debug/_ext/373060831/list.o
                0x9d006904                vListInsert

.text.SYS_CLK_Initialize
                0x9d006960       0x58
 .text.SYS_CLK_Initialize
                0x9d006960       0x58 build/default/debug/_ext/639803181/sys_clk_static.o
                0x9d006960                SYS_CLK_Initialize

.text.receiveFromProcessQ
                0x9d0069b8       0x58
 .text.receiveFromProcessQ
                0x9d0069b8       0x58 build/default/debug/_ext/1360937237/process.o
                0x9d0069b8                receiveFromProcessQ

.text.SYS_DEVCON_SystemUnlock
                0x9d006a10       0x58
 .text.SYS_DEVCON_SystemUnlock
                0x9d006a10       0x58 build/default/debug/_ext/482662494/sys_devcon.o
                0x9d006a10                SYS_DEVCON_SystemUnlock

.text.dbgOutputVal
                0x9d006a68       0x58
 .text.dbgOutputVal
                0x9d006a68       0x58 build/default/debug/_ext/1360937237/debug.o
                0x9d006a68                dbgOutputVal

.text.main_entry
                0x9d006ac0       0x54
 .text.main_entry
                0x9d006ac0       0x54 c:/program files (x86)/microchip/xc32/v1.40/bin/bin/../../lib/gcc/pic32mx/4.8.3/../../../../pic32mx/lib/./proc/32MX795F512L/crt0_mips32r2.o
                0x9d006af4                __crt0_exit

.text.processTokenMsg
                0x9d006b14       0x54
 .text.processTokenMsg
                0x9d006b14       0x54 build/default/debug/_ext/1360937237/process.o
                0x9d006b14                processTokenMsg

.text.processSendTokenFound
                0x9d006b68       0x54
 .text.processSendTokenFound
                0x9d006b68       0x54 build/default/debug/_ext/1360937237/process.o
                0x9d006b68                processSendTokenFound

.text.SEND_Tasks
                0x9d006bbc       0x54
 .text.SEND_Tasks
                0x9d006bbc       0x54 build/default/debug/_ext/1360937237/send.o
                0x9d006bbc                SEND_Tasks

.text.pxPortInitialiseStack
                0x9d006c10       0x54
 .text.pxPortInitialiseStack
                0x9d006c10       0x54 build/default/debug/_ext/1282498059/port.o
                0x9d006c10                pxPortInitialiseStack

.text.vPortIncrementTick
                0x9d006c64       0x54
 .text.vPortIncrementTick
                0x9d006c64       0x54 build/default/debug/_ext/1282498059/port.o
                0x9d006c64                vPortIncrementTick

.text.stopAll   0x9d006cb8       0x54
 .text.stopAll  0x9d006cb8       0x54 build/default/debug/_ext/1360937237/debug.o
                0x9d006cb8                stopAll

.text.receiveFromSendQ
                0x9d006d0c       0x50
 .text.receiveFromSendQ
                0x9d006d0c       0x50 build/default/debug/_ext/1360937237/send.o
                0x9d006d0c                receiveFromSendQ

.text.vTaskEnterCritical
                0x9d006d5c       0x50
 .text.vTaskEnterCritical
                0x9d006d5c       0x50 build/default/debug/_ext/373060831/tasks.o
                0x9d006d5c                vTaskEnterCritical

.text.prvCopyDataFromQueue
                0x9d006dac       0x50
 .text.prvCopyDataFromQueue
                0x9d006dac       0x50 build/default/debug/_ext/373060831/queue.o

.text.SYS_DEVCON_SystemLock
                0x9d006dfc       0x48
 .text.SYS_DEVCON_SystemLock
                0x9d006dfc       0x48 build/default/debug/_ext/482662494/sys_devcon.o
                0x9d006dfc                SYS_DEVCON_SystemLock

.text._bootstrap_exception_handler
                0x9d006e44       0x48
 .text._bootstrap_exception_handler
                0x9d006e44       0x48 c:/program files (x86)/microchip/xc32/v1.40/bin/bin/../../lib/gcc/pic32mx/4.8.3/../../../../pic32mx/lib\libpic32.a(default-bootstrap-exception-handler.o)
                0x9d006e44                _bootstrap_exception_handler

.vector_default
                0x9d006e8c       0x48
 .vector_default
                0x9d006e8c       0x48 c:/program files (x86)/microchip/xc32/v1.40/bin/bin/../../lib/gcc/pic32mx/4.8.3/../../../../pic32mx/lib\libpic32.a(defaultinterrupt.o)
                0x9d006e8c                _DefaultInterrupt

.text._general_exception_handler
                0x9d006ed4       0x44
 .text._general_exception_handler
                0x9d006ed4       0x44 build/default/debug/_ext/1688732426/system_exceptions.o
                0x9d006ed4                _general_exception_handler

.text.receiveSendValFromISR
                0x9d006f18       0x44
 .text.receiveSendValFromISR
                0x9d006f18       0x44 build/default/debug/_ext/1360937237/receive.o
                0x9d006f18                receiveSendValFromISR

.text.uxListRemove
                0x9d006f5c       0x44
 .text.uxListRemove
                0x9d006f5c       0x44 build/default/debug/_ext/373060831/list.o
                0x9d006f5c                uxListRemove

.text           0x9d006fa0       0x44
 .text          0x9d006fa0       0x44 c:/program files (x86)/microchip/xc32/v1.40/bin/bin/../../lib/gcc/pic32mx/4.8.3/../../../../pic32mx/lib\pic32_software_reset.o
                0x9d006fa0                __pic32_software_reset

.text.prvIdleTask
                0x9d006fe4       0x40
 .text.prvIdleTask
                0x9d006fe4       0x40 build/default/debug/_ext/373060831/tasks.o
                0x9d006fe4                prvIdleTask

.text.uxPortSetInterruptMaskFromISR
                0x9d007024       0x3c
 .text.uxPortSetInterruptMaskFromISR
                0x9d007024       0x3c build/default/debug/_ext/1282498059/port.o
                0x9d007024                uxPortSetInterruptMaskFromISR

.rodata         0x9d007060       0x38
 .rodata        0x9d007060       0x38 build/default/debug/_ext/1688732426/system_tasks.o

.text.prvResetNextTaskUnblockTime
                0x9d007098       0x38
 .text.prvResetNextTaskUnblockTime
                0x9d007098       0x38 build/default/debug/_ext/373060831/tasks.o
                0x9d007098                prvResetNextTaskUnblockTime

.text.uxQueueSpacesAvailable
                0x9d0070d0       0x38
 .text.uxQueueSpacesAvailable
                0x9d0070d0       0x38 build/default/debug/_ext/373060831/queue.o
                0x9d0070d0                uxQueueSpacesAvailable

.text.receiveMotorCallback
                0x9d007108       0x34
 .text.receiveMotorCallback
                0x9d007108       0x34 build/default/debug/_ext/1360937237/timerCallback.o
                0x9d007108                receiveMotorCallback

.text.DRV_USART0_ReadByte
                0x9d00713c       0x30
 .text.DRV_USART0_ReadByte
                0x9d00713c       0x30 build/default/debug/_ext/1345626252/drv_usart_static.o
                0x9d00713c                DRV_USART0_ReadByte

.text.removeProcessQueueData
                0x9d00716c       0x30
 .text.removeProcessQueueData
                0x9d00716c       0x30 build/default/debug/_ext/1360937237/process.o
                0x9d00716c                removeProcessQueueData

.text.removeSendQueueData
                0x9d00719c       0x30
 .text.removeSendQueueData
                0x9d00719c       0x30 build/default/debug/_ext/1360937237/send.o
                0x9d00719c                removeSendQueueData

.text.vListInsertEnd
                0x9d0071cc       0x30
 .text.vListInsertEnd
                0x9d0071cc       0x30 build/default/debug/_ext/373060831/list.o
                0x9d0071cc                vListInsertEnd

.text.prvDeleteTCB
                0x9d0071fc       0x30
 .text.prvDeleteTCB
                0x9d0071fc       0x30 build/default/debug/_ext/373060831/tasks.o
                0x9d0071fc                prvDeleteTCB

.text.vApplicationStackOverflowHook
                0x9d00722c       0x2c
 .text.vApplicationStackOverflowHook
                0x9d00722c       0x2c build/default/debug/_ext/1688732426/rtos_hooks.o
                0x9d00722c                vApplicationStackOverflowHook

.text.vApplicationMallocFailedHook
                0x9d007258       0x2c
 .text.vApplicationMallocFailedHook
                0x9d007258       0x2c build/default/debug/_ext/1688732426/rtos_hooks.o
                0x9d007258                vApplicationMallocFailedHook

.text.vTimerCallback
                0x9d007284       0x2c
 .text.vTimerCallback
                0x9d007284       0x2c build/default/debug/_ext/1360937237/timerCallback.o
                0x9d007284                vTimerCallback

.text.prvTaskExitError
                0x9d0072b0       0x2c
 .text.prvTaskExitError
                0x9d0072b0       0x2c build/default/debug/_ext/1282498059/port.o

.text.pvTaskIncrementMutexHeldCount
                0x9d0072dc       0x28
 .text.pvTaskIncrementMutexHeldCount
                0x9d0072dc       0x28 build/default/debug/_ext/373060831/tasks.o
                0x9d0072dc                pvTaskIncrementMutexHeldCount

.rodata         0x9d007304       0x24
 .rodata        0x9d007304       0x24 build/default/debug/_ext/1360937237/receive.o

.text.main      0x9d007328       0x20
 .text.main     0x9d007328       0x20 build/default/debug/_ext/1360937237/main.o
                0x9d007328                main

.text.reportMsgDataToSendQ
                0x9d007348       0x20
 .text.reportMsgDataToSendQ
                0x9d007348       0x20 build/default/debug/_ext/1360937237/receive.o
                0x9d007348                reportMsgDataToSendQ

.text.vListInitialise
                0x9d007368       0x20
 .text.vListInitialise
                0x9d007368       0x20 build/default/debug/_ext/373060831/list.o
                0x9d007368                vListInitialise

.text.xTaskGetSchedulerState
                0x9d007388       0x20
 .text.xTaskGetSchedulerState
                0x9d007388       0x20 build/default/debug/_ext/373060831/tasks.o
                0x9d007388                xTaskGetSchedulerState

.text.receiveTimerCallback
                0x9d0073a8       0x1c
 .text.receiveTimerCallback
                0x9d0073a8       0x1c build/default/debug/_ext/1360937237/timerCallback.o
                0x9d0073a8                receiveTimerCallback

.rodata         0x9d0073c4       0x1c
 .rodata        0x9d0073c4       0x1c build/default/debug/_ext/1360937237/process.o

.text.sendLRMotorInstruction
                0x9d0073e0       0x1c
 .text.sendLRMotorInstruction
                0x9d0073e0       0x1c build/default/debug/_ext/1360937237/receive.o
                0x9d0073e0                sendLRMotorInstruction

.text.SYS_DEVCON_JTAGDisable
                0x9d0073fc       0x1c
 .text.SYS_DEVCON_JTAGDisable
                0x9d0073fc       0x1c build/default/debug/_ext/482662494/sys_devcon.o
                0x9d0073fc                SYS_DEVCON_JTAGDisable

.text.vPortClearInterruptMaskFromISR
                0x9d007418       0x1c
 .text.vPortClearInterruptMaskFromISR
                0x9d007418       0x1c build/default/debug/_ext/1282498059/port.o
                0x9d007418                vPortClearInterruptMaskFromISR

.rodata         0x9d007434       0x1c
 .rodata        0x9d007434       0x1c build/default/debug/_ext/373060831/tasks.o

.text._SYS_Tasks
                0x9d007450       0x18
 .text._SYS_Tasks
                0x9d007450       0x18 build/default/debug/_ext/1688732426/system_tasks.o

.text._RECEIVE_Tasks
                0x9d007468       0x18
 .text._RECEIVE_Tasks
                0x9d007468       0x18 build/default/debug/_ext/1688732426/system_tasks.o

.text._SEND_Tasks
                0x9d007480       0x18
 .text._SEND_Tasks
                0x9d007480       0x18 build/default/debug/_ext/1688732426/system_tasks.o

.text._PROCESS_Tasks
                0x9d007498       0x18
 .text._PROCESS_Tasks
                0x9d007498       0x18 build/default/debug/_ext/1688732426/system_tasks.o

.text.IntHandlerDrvAdc
                0x9d0074b0       0x18
 .text.IntHandlerDrvAdc
                0x9d0074b0       0x18 build/default/debug/_ext/1688732426/system_interrupt.o
                0x9d0074b0                IntHandlerDrvAdc

.text.SYS_INT_Initialize
                0x9d0074c8       0x18
 .text.SYS_INT_Initialize
                0x9d0074c8       0x18 build/default/debug/_ext/1042686532/sys_int_pic32.o
                0x9d0074c8                SYS_INT_Initialize

.text           0x9d0074e0       0x18
 .text          0x9d0074e0       0x18 c:/program files (x86)/microchip/xc32/v1.40/bin/bin/../../lib/gcc/pic32mx/4.8.3/../../../../pic32mx/lib\libpic32.a(default-nmi-handler.o)
                0x9d0074e0                _nmi_handler

.text.DRV_USART0_ReceiverBufferIsEmpty
                0x9d0074f8       0x14
 .text.DRV_USART0_ReceiverBufferIsEmpty
                0x9d0074f8       0x14 build/default/debug/_ext/1345626252/drv_usart_static.o
                0x9d0074f8                DRV_USART0_ReceiverBufferIsEmpty

.text.SYS_DEVCON_Initialize
                0x9d00750c       0x14
 .text.SYS_DEVCON_Initialize
                0x9d00750c       0x14 build/default/debug/_ext/482662494/sys_devcon.o
                0x9d00750c                SYS_DEVCON_Initialize

.text.vTaskSuspendAll
                0x9d007520       0x14
 .text.vTaskSuspendAll
                0x9d007520       0x14 build/default/debug/_ext/373060831/tasks.o
                0x9d007520                vTaskSuspendAll

.text.vTaskSetTimeOutState
                0x9d007534       0x14
 .text.vTaskSetTimeOutState
                0x9d007534       0x14 build/default/debug/_ext/373060831/tasks.o
                0x9d007534                vTaskSetTimeOutState

.rodata         0x9d007548       0x10
 .rodata        0x9d007548       0x10 build/default/debug/_ext/1360937237/send.o

.text.vTaskMissedYield
                0x9d007558       0x10
 .text.vTaskMissedYield
                0x9d007558       0x10 build/default/debug/_ext/373060831/tasks.o
                0x9d007558                vTaskMissedYield

.text.__exception_handler_break
                0x9d007568        0xc
 .text.__exception_handler_break
                0x9d007568        0xc c:/program files (x86)/microchip/xc32/v1.40/bin/bin/../../lib/gcc/pic32mx/4.8.3/../../../../pic32mx/lib\software-debug-break.o
                0x9d007568                __exception_handler_break

.text.SYS_CLK_SystemFrequencyGet
                0x9d007574        0xc
 .text.SYS_CLK_SystemFrequencyGet
                0x9d007574        0xc build/default/debug/_ext/639803181/sys_clk_static.o
                0x9d007574                SYS_CLK_SystemFrequencyGet

.text.SYS_CLK_PeripheralFrequencyGet
                0x9d007580        0xc
 .text.SYS_CLK_PeripheralFrequencyGet
                0x9d007580        0xc build/default/debug/_ext/639803181/sys_clk_static.o
                0x9d007580                SYS_CLK_PeripheralFrequencyGet

.text.xTaskGetTickCount
                0x9d00758c        0xc
 .text.xTaskGetTickCount
                0x9d00758c        0xc build/default/debug/_ext/373060831/tasks.o
                0x9d00758c                xTaskGetTickCount

.text.uxQueueMessagesWaitingFromISR
                0x9d007598        0xc
 .text.uxQueueMessagesWaitingFromISR
                0x9d007598        0xc build/default/debug/_ext/373060831/queue.o
                0x9d007598                uxQueueMessagesWaitingFromISR

.text.SYS_DEVCON_Tasks
                0x9d0075a4        0x8
 .text.SYS_DEVCON_Tasks
                0x9d0075a4        0x8 build/default/debug/_ext/482662494/sys_devcon.o
                0x9d0075a4                SYS_DEVCON_Tasks

.text.vPortFree
                0x9d0075ac        0x8
 .text.vPortFree
                0x9d0075ac        0x8 build/default/debug/_ext/1107379230/heap_1.o
                0x9d0075ac                vPortFree

.text.vListInitialiseItem
                0x9d0075b4        0x8
 .text.vListInitialiseItem
                0x9d0075b4        0x8 build/default/debug/_ext/373060831/list.o
                0x9d0075b4                vListInitialiseItem

.rodata         0x9d0075bc        0x8
 .rodata        0x9d0075bc        0x8 build/default/debug/_ext/373060831/timers.o

.text._on_reset
                0x9d0075c4        0x8
 .text._on_reset
                0x9d0075c4        0x8 c:/program files (x86)/microchip/xc32/v1.40/bin/bin/../../lib/gcc/pic32mx/4.8.3/../../../../pic32mx/lib\libpic32.a(default-on-reset.o)
                0x9d0075c4                _on_reset

.text._on_bootstrap
                0x9d0075cc        0x8
 .text._on_bootstrap
                0x9d0075cc        0x8 c:/program files (x86)/microchip/xc32/v1.40/bin/bin/../../lib/gcc/pic32mx/4.8.3/../../../../pic32mx/lib\libpic32.a(default-on-bootstrap.o)
                0x9d0075cc                _on_bootstrap

.rodata         0x9d0075d4        0x8
 .rodata        0x9d0075d4        0x4 build/default/debug/_ext/1688732426/system_init.o
                0x9d0075d4                sysDevconInit
 .rodata        0x9d0075d8        0x4 build/default/debug/_ext/1282498059/port.o
                0x9d0075d8                xISRStackTop
